(dp0
S'K9MN'
p1
(VAmerica/Chicago
p2
cpytz
_p
p3
(S'America/Chicago'
p4
I-21060
I0
S'LMT'
p5
tp6
Rp7
tp8
sS'KDDC'
p9
(VAmerica/Chicago
p10
g7
tp11
sS'KVQQ'
p12
(VAmerica/New_York
p13
g3
(S'America/New_York'
p14
I-17760
I0
S'LMT'
p15
tp16
Rp17
tp18
sS'KVQT'
p19
(VAmerica/Chicago
p20
g7
tp21
sS'KDDH'
p22
(VAmerica/New_York
p23
g17
tp24
sS'KOTM'
p25
(g2
g7
tp26
sS'PAZK'
p27
(VAmerica/Anchorage
p28
g3
(S'America/Anchorage'
p29
I-36000
I0
S'LMT'
p30
tp31
Rp32
tp33
sS'KQHY'
p34
(VAmerica/New_York
p35
g17
tp36
sS'KBXA'
p37
(VAmerica/Chicago
p38
g7
tp39
sS'KOTG'
p40
(VAmerica/Chicago
p41
g7
tp42
sS'XCOU'
p43
(g41
g7
tp44
sS'KBXK'
p45
(VAmerica/Phoenix
p46
g3
(S'America/Phoenix'
p47
I-26880
I0
S'LMT'
p48
tp49
Rp50
tp51
sS'KOSU'
p52
(VAmerica/New_York
p53
g17
tp54
sS'PHMK'
p55
(VPacific/Honolulu
p56
g3
(S'Pacific/Honolulu'
p57
I-37860
I0
S'LMT'
p58
tp59
Rp60
tp61
sS'KCFE'
p62
(VAmerica/Chicago
p63
g7
tp64
sS'XPAD'
p65
(VAmerica/Chicago
p66
g7
tp67
sS'PHMO'
p68
(g56
g60
tp69
sS'KRUQ'
p70
(VAmerica/New_York
p71
g17
tp72
sS'K3LF'
p73
(g38
g7
tp74
sS'KU31'
p75
(VAmerica/Los_Angeles
p76
g3
(S'America/Los_Angeles'
p77
I-28380
I0
S'LMT'
p78
tp79
Rp80
tp81
sS'KX26'
p82
(g71
g17
tp83
sS'KNHK'
p84
(VAmerica/New_York
p85
g17
tp86
sS'PADE'
p87
(VAmerica/Anchorage
p88
g32
tp89
sS'KS14'
p90
(VAmerica/Boise
p91
g3
(S'America/Boise'
p92
I-27900
I0
S'LMT'
p93
tp94
Rp95
tp96
sS'PADG'
p97
(VAmerica/Nome
p98
g3
(S'America/Nome'
p99
I-39720
I0
S'LMT'
p100
tp101
Rp102
tp103
sS'PADK'
p104
NsS'KPAE'
p105
(VAmerica/Los_Angeles
p106
g80
tp107
sS'PADM'
p108
(g98
g102
tp109
sS'PADL'
p110
(VAmerica/Anchorage
p111
g32
tp112
sS'PADQ'
p113
(VAmerica/Anchorage
p114
g32
tp115
sS'KNHZ'
p116
(VAmerica/New_York
p117
g17
tp118
sS'KPTB'
p119
(VAmerica/New_York
p120
g17
tp121
sS'PADU'
p122
NsS'PADT'
p123
(VAmerica/Anchorage
p124
g32
tp125
sS'KL63'
p126
(VAmerica/Los_Angeles
p127
g80
tp128
sS'KD50'
p129
(VAmerica/Chicago
p130
g7
tp131
sS'KFPK'
p132
(VAmerica/Detroit
p133
g3
(S'America/Detroit'
p134
I-19920
I0
S'LMT'
p135
tp136
Rp137
tp138
sS'KW96'
p139
(g120
g17
tp140
sS'KADM'
p141
(VAmerica/Chicago
p142
g7
tp143
sS'KGWW'
p144
(g120
g17
tp145
sS'KADC'
p146
(g41
g7
tp147
sS'K5H4'
p148
(g10
g7
tp149
sS'KADF'
p150
(g63
g7
tp151
sS'KLLJ'
p152
(VAmerica/Boise
p153
g95
tp154
sS'KSDB'
p155
(VAmerica/Los_Angeles
p156
g80
tp157
sS'KSDC'
p158
(g120
g17
tp159
sS'KSDA'
p160
(g41
g7
tp161
sS'KLLQ'
p162
(VAmerica/Chicago
p163
g7
tp164
sS'KLLR'
p165
(VAmerica/Los_Angeles
p166
g80
tp167
sS'KFPR'
p168
(g71
g17
tp169
sS'KADR'
p170
(g142
g7
tp171
sS'KADS'
p172
(VAmerica/Chicago
p173
g7
tp174
sS'KADU'
p175
(g20
g7
tp176
sS'KSDL'
p177
(VAmerica/Phoenix
p178
g50
tp179
sS'KSDM'
p180
(VAmerica/Tijuana
p181
g3
(S'America/Tijuana'
p182
I-28080
I0
S'LMT'
p183
tp184
Rp185
tp186
sS'KMRF'
p187
(VAmerica/Chicago
p188
g7
tp189
sS'K1D3'
p190
(VAmerica/Chicago
p191
g7
tp192
sS'KMRB'
p193
(g120
g17
tp194
sS'KOTH'
p195
(VAmerica/Los_Angeles
p196
g80
tp197
sS'KMRN'
p198
(g13
g17
tp199
sS'XSE1'
p200
(g10
g7
tp201
sS'KMRJ'
p202
(VAmerica/Chicago
p203
g7
tp204
sS'KMRH'
p205
(g85
g17
tp206
sS'KMRT'
p207
(g53
g17
tp208
sS'KP08'
p209
(g178
g50
tp210
sS'KP07'
p211
(VAmerica/Chicago
p212
g7
tp213
sS'KMRY'
p214
(VAmerica/Los_Angeles
p215
g80
tp216
sS'KSRN'
p217
(g163
g7
tp218
sS'KSRB'
p219
(VAmerica/Chicago
p220
g7
tp221
sS'KSRC'
p222
(g163
g7
tp223
sS'KSRE'
p224
(g173
g7
tp225
sS'K48I'
p226
(g71
g17
tp227
sS'KSRQ'
p228
(VAmerica/New_York
p229
g17
tp230
sS'KSRR'
p231
(VAmerica/Denver
p232
g3
(S'America/Denver'
p233
I-25200
I0
S'LMT'
p234
tp235
Rp236
tp237
sS'KJBR'
p238
(g203
g7
tp239
sS'KVCV'
p240
(g76
g80
tp241
sS'K24A'
p242
(g53
g17
tp243
sS'KOZW'
p244
(VAmerica/Detroit
p245
g137
tp246
sS'KBJI'
p247
(g20
g7
tp248
sS'K1B7'
p249
(g38
g7
tp250
sS'KOZR'
p251
(g220
g7
tp252
sS'KOZS'
p253
(g2
g7
tp254
sS'K24J'
p255
(g53
g17
tp256
sS'KRCX'
p257
(g203
g7
tp258
sS'KBJC'
p259
(g232
g236
tp260
sS'KVCB'
p261
(g215
g80
tp262
sS'KOZA'
p263
(VAmerica/Chicago
p264
g7
tp265
sS'XCAR'
p266
(g20
g7
tp267
sS'KGAI'
p268
(g120
g17
tp269
sS'KKAD'
p270
(VAmerica/Denver
p271
g236
tp272
sS'XDC1'
p273
(g232
g236
tp274
sS'KWST'
p275
(g23
g17
tp276
sS'KUAO'
p277
(g106
g80
tp278
sS'QCLS'
p279
(g142
g7
tp280
sS'K11R'
p281
(g173
g7
tp282
sS'XMUS'
p283
(g212
g7
tp284
sS'KTOW'
p285
(VAmerica/Denver
p286
g236
tp287
sS'KTOP'
p288
(g41
g7
tp289
sS'KTOR'
p290
(VAmerica/Denver
p291
g236
tp292
sS'XOES'
p293
(g264
g7
tp294
sS'QCCI'
p295
(g2
g7
tp296
sS'KTOA'
p297
(VAmerica/Los_Angeles
p298
g80
tp299
sS'KTOB'
p300
(g2
g7
tp301
sS'KTOC'
p302
(g53
g17
tp303
sS'KTOL'
p304
(g53
g17
tp305
sS'KTOI'
p306
(VAmerica/Chicago
p307
g7
tp308
sS'KW75'
p309
(VAmerica/New_York
p310
g17
tp311
sS'KTAZ'
p312
(g38
g7
tp313
sS'KMLT'
p314
(VAmerica/New_York
p315
g17
tp316
sS'KMLU'
p317
(g2
g7
tp318
sS'KMLP'
p319
(VAmerica/Denver
p320
g236
tp321
sS'PAWI'
p322
(VAmerica/Anchorage
p323
g32
tp324
sS'KMLS'
p325
(g232
g236
tp326
sS'KTAN'
p327
(g23
g17
tp328
sS'KBCB'
p329
(g71
g17
tp330
sS'KMLI'
p331
(g203
g7
tp332
sS'KMLJ'
p333
(g53
g17
tp334
sS'KMLD'
p335
(g91
g95
tp336
sS'K0D8'
p337
(g10
g7
tp338
sS'KTAD'
p339
(g291
g236
tp340
sS'QAMI'
p341
(g63
g7
tp342
sS'KMLB'
p343
(g229
g17
tp344
sS'KMLC'
p345
(g41
g7
tp346
sS'KIOB'
p347
(g53
g17
tp348
sS'KGOV'
p349
(g133
g137
tp350
sS'KDYR'
p351
(g38
g7
tp352
sS'XPFS'
p353
(g66
g7
tp354
sS'KEUG'
p355
(g166
g80
tp356
sS'KIOW'
p357
(g163
g7
tp358
sS'QMDI'
p359
(g63
g7
tp360
sS'KGOK'
p361
(g142
g7
tp362
sS'KGOO'
p363
(VAmerica/Los_Angeles
p364
g80
tp365
sS'XDAV'
p366
(g203
g7
tp367
sS'KDYS'
p368
(g10
g7
tp369
sS'KRQO'
p370
(g142
g7
tp371
sS'KRQE'
p372
(VAmerica/Denver
p373
g236
tp374
sS'KRQB'
p375
(VAmerica/Detroit
p376
g137
tp377
sS'KEKQ'
p378
(g35
g17
tp379
sS'KPO1'
p380
(g232
g236
tp381
sS'KEKS'
p382
(VAmerica/Denver
p383
g236
tp384
sS'KGSB'
p385
(g120
g17
tp386
sS'KEKY'
p387
(g307
g7
tp388
sS'KEKX'
p389
(VAmerica/New_York
p390
g17
tp391
sS'KGSM'
p392
(g2
g7
tp393
sS'KGSH'
p394
(VAmerica/Indiana/Indianapolis
p395
g3
(S'America/Indiana/Indianapolis'
p396
I-20700
I0
S'LMT'
p397
tp398
Rp399
tp400
sS'KEKA'
p401
(g196
g80
tp402
sS'KP92'
p403
(g38
g7
tp404
sS'KSMX'
p405
(g364
g80
tp406
sS'KD95'
p407
(g245
g137
tp408
sS'KNYL'
p409
(VAmerica/Phoenix
p410
g50
tp411
sS'KGSP'
p412
(g229
g17
tp413
sS'KNYC'
p414
(VAmerica/New_York
p415
g17
tp416
sS'KEKM'
p417
(g395
g399
tp418
sS'KFYJ'
p419
(g310
g17
tp420
sS'KEKO'
p421
(g127
g80
tp422
sS'KNYG'
p423
(g120
g17
tp424
sS'KROG'
p425
(g20
g7
tp426
sS'KW63'
p427
(g85
g17
tp428
sS'KPOU'
p429
(g23
g17
tp430
sS'KPOV'
p431
(g13
g17
tp432
sS'KROA'
p433
(VAmerica/New_York
p434
g17
tp435
sS'QPEI'
p436
(g2
g7
tp437
sS'KEYW'
p438
(VAmerica/Havana
p439
g3
(S'America/Havana'
p440
I-19740
I0
S'LMT'
p441
tp442
Rp443
tp444
sS'KFYM'
p445
(g307
g7
tp446
sS'KROW'
p447
(g291
g236
tp448
sS'KPOB'
p449
(g434
g17
tp450
sS'KPOC'
p451
(g76
g80
tp452
sS'KPOE'
p453
(g63
g7
tp454
sS'KPOF'
p455
(g203
g7
tp456
sS'KCJR'
p457
(g120
g17
tp458
sS'KEYF'
p459
(g85
g17
tp460
sS'KEYE'
p461
(VAmerica/Indiana/Indianapolis
p462
g399
tp463
sS'KWAL'
p464
(g120
g17
tp465
sS'KHGR'
p466
(g120
g17
tp467
sS'KHGT'
p468
(g215
g80
tp469
sS'XGRI'
p470
(g2
g7
tp471
sS'KF70'
p472
(g127
g80
tp473
sS'QOBS'
p474
(g66
g7
tp475
sS'PAKN'
p476
(VAmerica/Anchorage
p477
g32
tp478
sS'PAKH'
p479
(g114
g32
tp480
sS'PAKI'
p481
(g98
g102
tp482
sS'KPSB'
p483
(g85
g17
tp484
sS'KPSC'
p485
(VAmerica/Los_Angeles
p486
g80
tp487
sS'KPSM'
p488
(VAmerica/New_York
p489
g17
tp490
sS'PAKF'
p491
NsS'KPSO'
p492
(VAmerica/Denver
p493
g236
tp494
sS'KA08'
p495
(VAmerica/Chicago
p496
g7
tp497
sS'KLPC'
p498
(g156
g80
tp499
sS'KNKX'
p500
(g127
g80
tp501
sS'KPSK'
p502
(g71
g17
tp503
sS'KPSP'
p504
(g298
g80
tp505
sS'PAKT'
p506
(VAmerica/Metlakatla
p507
g3
(S'America/Metlakatla'
p508
I-31560
I0
S'LMT'
p509
tp510
Rp511
tp512
sS'PAKU'
p513
(VAmerica/Anchorage
p514
g32
tp515
sS'PAKV'
p516
(g111
g32
tp517
sS'PAKW'
p518
(VAmerica/Vancouver
p519
g3
(S'America/Vancouver'
p520
I-29520
I0
S'LMT'
p521
tp522
Rp523
tp524
sS'PAKP'
p525
(VAmerica/Anchorage
p526
g32
tp527
sS'KPWM'
p528
(VAmerica/New_York
p529
g17
tp530
sS'KAEJ'
p531
(VAmerica/Denver
p532
g236
tp533
sS'KFST'
p534
(g212
g7
tp535
sS'KJSV'
p536
(g20
g7
tp537
sS'KIPT'
p538
(g310
g17
tp539
sS'KJST'
p540
(g85
g17
tp541
sS'KSEZ'
p542
(g178
g50
tp543
sS'KSET'
p544
(g203
g7
tp545
sS'KAEG'
p546
(g532
g236
tp547
sS'QINI'
p548
(g63
g7
tp549
sS'KSEM'
p550
(g307
g7
tp551
sS'KLKR'
p552
(g71
g17
tp553
sS'KAEX'
p554
(g2
g7
tp555
sS'KLKU'
p556
(g120
g17
tp557
sS'KLKV'
p558
(g364
g80
tp559
sS'KSEE'
p560
(g181
g185
tp561
sS'KFSO'
p562
(g23
g17
tp563
sS'KSEG'
p564
(g310
g17
tp565
sS'KFSM'
p566
(g20
g7
tp567
sS'KSEA'
p568
(g106
g80
tp569
sS'KFSK'
p570
(g20
g7
tp571
sS'QKNI'
p572
(g63
g7
tp573
sS'KCKC'
p574
(g2
g7
tp575
sS'KFAY'
p576
(g85
g17
tp577
sS'KHUL'
p578
(VAmerica/Moncton
p579
g3
(S'America/Moncton'
p580
I-15540
I0
S'LMT'
p581
tp582
Rp583
tp584
sS'KHUM'
p585
(g203
g7
tp586
sS'KCKF'
p587
(g53
g17
tp588
sS'KHUF'
p589
(VAmerica/Indiana/Indianapolis
p590
g399
tp591
sS'KAST'
p592
(g166
g80
tp593
sS'KASW'
p594
(g395
g399
tp595
sS'KFAT'
p596
(g486
g80
tp597
sS'KCKN'
p598
(g173
g7
tp599
sS'KCKM'
p600
(g203
g7
tp601
sS'KHUA'
p602
(g307
g7
tp603
sS'KASL'
p604
(g20
g7
tp605
sS'KCKP'
p606
(g41
g7
tp607
sS'KFAM'
p608
(g203
g7
tp609
sS'KASJ'
p610
(g120
g17
tp611
sS'KASE'
p612
(g532
g236
tp613
sS'KASD'
p614
(g38
g7
tp615
sS'KASG'
p616
(g20
g7
tp617
sS'KUGN'
p618
(g38
g7
tp619
sS'KFAF'
p620
(g310
g17
tp621
sS'KDUJ'
p622
(g85
g17
tp623
sS'KDUH'
p624
(g53
g17
tp625
sS'KXVW'
p626
(g156
g80
tp627
sS'KDUB'
p628
(g373
g236
tp629
sS'KDUC'
p630
(g142
g7
tp631
sS'KDUA'
p632
(g173
g7
tp633
sS'KDUG'
p634
(VAmerica/Hermosillo
p635
g3
(S'America/Hermosillo'
p636
I-26640
I0
S'LMT'
p637
tp638
Rp639
tp640
sS'KDUX'
p641
(g212
g7
tp642
sS'KAPG'
p643
(g310
g17
tp644
sS'KXVG'
p645
(g20
g7
tp646
sS'KMLE'
p647
(g173
g7
tp648
sS'KSSI'
p649
(g13
g17
tp650
sS'KSDY'
p651
(g291
g236
tp652
sS'KSSM'
p653
(g133
g137
tp654
sS'QBDI'
p655
(g20
g7
tp656
sS'KW99'
p657
(g434
g17
tp658
sS'KSSF'
p659
(g191
g7
tp660
sS'KJEF'
p661
(g2
g7
tp662
sS'PFNO'
p663
(VAmerica/Anchorage
p664
g32
tp665
sS'XRLS'
p666
(g264
g7
tp667
sS'K47N'
p668
(VAmerica/New_York
p669
g17
tp670
sS'PAWD'
p671
(g514
g32
tp672
sS'KJER'
p673
(g153
g95
tp674
sS'KJES'
p675
(g13
g17
tp676
sS'KSHD'
p677
(g85
g17
tp678
sS'KSSU'
p679
(g71
g17
tp680
sS'KBMI'
p681
(VAmerica/Chicago
p682
g7
tp683
sS'KVBS'
p684
(g163
g7
tp685
sS'KBML'
p686
(g117
g17
tp687
sS'KVBT'
p688
(g20
g7
tp689
sS'XSDS'
p690
(g212
g7
tp691
sS'K27D'
p692
(g173
g7
tp693
sS'KONO'
p694
(VAmerica/Boise
p695
g95
tp696
sS'KBMG'
p697
(g462
g399
tp698
sS'KJPD'
p699
(g493
g236
tp700
sS'KVBG'
p701
(g156
g80
tp702
sS'KBMQ'
p703
(g191
g7
tp704
sS'KBMT'
p705
(g20
g7
tp706
sS'KDXX'
p707
(g173
g7
tp708
sS'KVPZ'
p709
(g307
g7
tp710
sS'KFCM'
p711
(g63
g7
tp712
sS'KVPS'
p713
(g35
g17
tp714
sS'KMNV'
p715
(g35
g17
tp716
sS'KDCM'
p717
(g13
g17
tp718
sS'KDCU'
p719
(g307
g7
tp720
sS'KOUN'
p721
(g142
g7
tp722
sS'KVPC'
p723
(g35
g17
tp724
sS'KDCY'
p725
(g496
g7
tp726
sS'KHTO'
p727
(g669
g17
tp728
sS'PAYA'
p729
(VAmerica/Whitehorse
p730
g3
(S'America/Whitehorse'
p731
I-32400
I0
S'LMT'
p732
tp733
Rp734
tp735
sS'KP75'
p736
(g682
g7
tp737
sS'K3MW'
p738
(g532
g236
tp739
sS'XFVS'
p740
(g264
g7
tp741
sS'KUMP'
p742
(g462
g399
tp743
sS'KONZ'
p744
(g245
g137
tp745
sS'XWT1'
p746
(g66
g7
tp747
sS'PHNY'
p748
NsS'PHNG'
p749
(g56
g60
tp750
sS'PHNL'
p751
(g56
g60
tp752
sS'KADW'
p753
(g310
g17
tp754
sS'K29D'
p755
(g71
g17
tp756
sS'KKLS'
p757
(g106
g80
tp758
sS'XSVS'
p759
(g264
g7
tp760
sS'KOIN'
p761
(g66
g7
tp762
sS'KMMV'
p763
(g166
g80
tp764
sS'KMMU'
p765
(g310
g17
tp766
sS'KMMT'
p767
(g71
g17
tp768
sS'KOIC'
p769
(g415
g17
tp770
sS'KMMO'
p771
(g682
g7
tp772
sS'KONP'
p773
(g106
g80
tp774
sS'KMMM'
p775
(g286
g236
tp776
sS'KMML'
p777
(g41
g7
tp778
sS'KMMK'
p779
(g529
g17
tp780
sS'KMMI'
p781
(g35
g17
tp782
sS'KMMH'
p783
(g156
g80
tp784
sS'QSNS'
p785
(g173
g7
tp786
sS'KMRC'
p787
(g496
g7
tp788
sS'KAIO'
p789
(g41
g7
tp790
sS'KGLY'
p791
(g63
g7
tp792
sS'KGLV'
p793
(g271
g236
tp794
sS'KGLW'
p795
(g220
g7
tp796
sS'KGLR'
p797
(g133
g137
tp798
sS'KGLS'
p799
(g2
g7
tp800
sS'KGLH'
p801
(g203
g7
tp802
sS'KAIK'
p803
(g13
g17
tp804
sS'KGLD'
p805
(g271
g236
tp806
sS'KGLE'
p807
(g142
g7
tp808
sS'KCEZ'
p809
(VAmerica/Denver
p810
g236
tp811
sS'KMSL'
p812
(g496
g7
tp813
sS'KMSO'
p814
(VAmerica/Los_Angeles
p815
g80
tp816
sS'KMSN'
p817
(g38
g7
tp818
sS'KMSP'
p819
(g63
g7
tp820
sS'KMSS'
p821
(g669
g17
tp822
sS'QBZI'
p823
(g63
g7
tp824
sS'KLWM'
p825
(g117
g17
tp826
sS'KMSY'
p827
(g203
g7
tp828
sS'K88M'
p829
(g320
g236
tp830
sS'KBTM'
p831
(VAmerica/Denver
p832
g236
tp833
sS'XCA1'
p834
(g66
g7
tp835
sS'KPNS'
p836
(g220
g7
tp837
sS'KUCY'
p838
(g682
g7
tp839
sS'KRNC'
p840
(g220
g7
tp841
sS'KRND'
p842
(g191
g7
tp843
sS'XOD1'
p844
(g10
g7
tp845
sS'KPNT'
p846
(g682
g7
tp847
sS'KRNH'
p848
(g2
g7
tp849
sS'KRNM'
p850
(g298
g80
tp851
sS'KRNO'
p852
(g486
g80
tp853
sS'KGBD'
p854
(g191
g7
tp855
sS'KRNP'
p856
(g133
g137
tp857
sS'KPNA'
p858
(g373
g236
tp859
sS'KGBG'
p860
(g203
g7
tp861
sS'KH00'
p862
(g20
g7
tp863
sS'KPNE'
p864
(g415
g17
tp865
sS'KH02'
p866
(g163
g7
tp867
sS'KH08'
p868
(g163
g7
tp869
sS'KPNM'
p870
(g63
g7
tp871
sS'KGBK'
p872
NsS'KEZF'
p873
(g120
g17
tp874
sS'KCZT'
p875
(g10
g7
tp876
sS'QOCI'
p877
(g2
g7
tp878
sS'KCZZ'
p879
(VAmerica/Santa_Isabel
p880
g3
(S'America/Santa_Isabel'
p881
I-28080
I0
g183
tp882
Rp883
tp884
sS'KEZM'
p885
(g53
g17
tp886
sS'K4S1'
p887
(g196
g80
tp888
sS'K4S2'
p889
(g215
g80
tp890
sS'KHFF'
p891
(g434
g17
tp892
sS'KCKB'
p893
(g71
g17
tp894
sS'KHFD'
p895
(g529
g17
tp896
sS'KHFJ'
p897
(g20
g7
tp898
sS'KCZK'
p899
(g215
g80
tp900
sS'KCZL'
p901
(g35
g17
tp902
sS'KFAR'
p903
(g173
g7
tp904
sS'K12N'
p905
(g669
g17
tp906
sS'XCL1'
p907
(g264
g7
tp908
sS'KMKL'
p909
(g682
g7
tp910
sS'QHUI'
p911
(g20
g7
tp912
sS'KTNU'
p913
(g63
g7
tp914
sS'KCWF'
p915
(g63
g7
tp916
sS'KIRS'
p917
(g395
g399
tp918
sS'K8A0'
p919
(g307
g7
tp920
sS'QCDI'
p921
(g63
g7
tp922
sS'KTNB'
p923
(g13
g17
tp924
sS'QJAM'
p925
(g2
g7
tp926
sS'KHIF'
p927
(g383
g236
tp928
sS'QHUS'
p929
(g191
g7
tp930
sS'QIAI'
p931
(g63
g7
tp932
sS'KATY'
p933
(g142
g7
tp934
sS'KCHM'
p935
(g271
g236
tp936
sS'KCHJ'
p937
(g373
g236
tp938
sS'KHTL'
p939
(g133
g137
tp940
sS'KCHH'
p941
(g117
g17
tp942
sS'KATP'
p943
NsS'KCHD'
p944
(g178
g50
tp945
sS'KATS'
p946
(g291
g236
tp947
sS'KED0'
p948
(VAmerica/Denver
p949
g236
tp950
sS'KCHA'
p951
(g390
g17
tp952
sS'KATL'
p953
(g35
g17
tp954
sS'KMKG'
p955
(VAmerica/Detroit
p956
g137
tp957
sS'KHTS'
p958
(g229
g17
tp959
sS'KCHS'
p960
(g229
g17
tp961
sS'KDTW'
p962
(g245
g137
tp963
sS'KNUW'
p964
(VAmerica/Vancouver
p965
g523
tp966
sS'KDTS'
p967
(g35
g17
tp968
sS'KHIO'
p969
(g106
g80
tp970
sS'KDTA'
p971
(g832
g236
tp972
sS'KDTL'
p973
(g41
g7
tp974
sS'KDTO'
p975
(g142
g7
tp976
sS'KDTN'
p977
(g63
g7
tp978
sS'KRPX'
p979
(g810
g236
tp980
sS'KRPJ'
p981
(g38
g7
tp982
sS'KRPH'
p983
(g191
g7
tp984
sS'KRPE'
p985
(g163
g7
tp986
sS'KRPD'
p987
(g163
g7
tp988
sS'K87Q'
p989
(g486
g80
tp990
sS'QMYI'
p991
(g63
g7
tp992
sS'KEDU'
p993
(g215
g80
tp994
sS'KGPH'
p995
(g20
g7
tp996
sS'KGPI'
p997
(VAmerica/Denver
p998
g236
tp999
sS'KGPM'
p1000
(g142
g7
tp1001
sS'KEDN'
p1002
(g220
g7
tp1003
sS'KGPT'
p1004
(g38
g7
tp1005
sS'KAWH'
p1006
(g127
g80
tp1007
sS'KGPZ'
p1008
(g63
g7
tp1009
sS'KEDE'
p1010
(g310
g17
tp1011
sS'KNXF'
p1012
(g76
g80
tp1013
sS'KEDC'
p1014
(g142
g7
tp1015
sS'KT82'
p1016
(g191
g7
tp1017
sS'KDBN'
p1018
(g229
g17
tp1019
sS'KDBQ'
p1020
(g203
g7
tp1021
sS'KBZN'
p1022
(g383
g236
tp1023
sS'K72C'
p1024
(VAmerica/Denver
p1025
g236
tp1026
sS'KVSF'
p1027
(g529
g17
tp1028
sS'K1B1'
p1029
(g23
g17
tp1030
sS'XFL1'
p1031
(g810
g236
tp1032
sS'PAXK'
p1033
(VAmerica/Anchorage
p1034
g32
tp1035
sS'KCLI'
p1036
(g682
g7
tp1037
sS'PHOG'
p1038
NsS'KPRG'
p1039
(g590
g399
tp1040
sS'PAJN'
p1041
(VAmerica/Juneau
p1042
g3
(S'America/Juneau'
p1043
I-32280
I0
S'LMT'
p1044
tp1045
Rp1046
tp1047
sS'KPRC'
p1048
(g46
g50
tp1049
sS'KPRB'
p1050
(g364
g80
tp1051
sS'K3J7'
p1052
(g53
g17
tp1053
sS'KPRO'
p1054
(g20
g7
tp1055
sS'KPRN'
p1056
(g307
g7
tp1057
sS'PAJC'
p1058
(g111
g32
tp1059
sS'KPRS'
p1060
(VAmerica/Ojinaga
p1061
g3
(S'America/Ojinaga'
p1062
I-25080
I0
S'LMT'
p1063
tp1064
Rp1065
tp1066
sS'PAJZ'
p1067
(VAmerica/Anchorage
p1068
g32
tp1069
sS'PAJV'
p1070
(VAmerica/Anchorage
p1071
g32
tp1072
sS'KNJK'
p1073
(VAmerica/Tijuana
p1074
g185
tp1075
sS'KNJM'
p1076
(g434
g17
tp1077
sS'KN40'
p1078
(g669
g17
tp1079
sS'PFYU'
p1080
(g1034
g32
tp1081
sS'KSBY'
p1082
(g415
g17
tp1083
sS'KHZE'
p1084
(VAmerica/North_Dakota/Center
p1085
g3
(S'America/North_Dakota/Center'
p1086
I-24300
I0
S'LMT'
p1087
tp1088
Rp1089
tp1090
sS'KHZD'
p1091
(g682
g7
tp1092
sS'KLJF'
p1093
(g20
g7
tp1094
sS'KAFP'
p1095
(g71
g17
tp1096
sS'KSBP'
p1097
(g364
g80
tp1098
sS'KSBS'
p1099
(g532
g236
tp1100
sS'KCFJ'
p1101
(g462
g399
tp1102
sS'KAFF'
p1103
(g291
g236
tp1104
sS'KCFV'
p1105
(g41
g7
tp1106
sS'KHZR'
p1107
(g163
g7
tp1108
sS'KFRG'
p1109
(g415
g17
tp1110
sS'KSBO'
p1111
(g229
g17
tp1112
sS'KFRI'
p1113
(g173
g7
tp1114
sS'KSBA'
p1115
(g76
g80
tp1116
sS'KFRM'
p1117
(g20
g7
tp1118
sS'KAFK'
p1119
(g41
g7
tp1120
sS'KHZY'
p1121
(g71
g17
tp1122
sS'KHZX'
p1123
(g63
g7
tp1124
sS'KLEB'
p1125
(g529
g17
tp1126
sS'K4G6'
p1127
(g120
g17
tp1128
sS'K5T6'
p1129
(VAmerica/Ojinaga
p1130
g1065
tp1131
sS'KHFY'
p1132
(g462
g399
tp1133
sS'XSGV'
p1134
(g212
g7
tp1135
sS'KP69'
p1136
(g127
g80
tp1137
sS'KP68'
p1138
(g127
g80
tp1139
sS'KMYJ'
p1140
(g163
g7
tp1141
sS'KP61'
p1142
(g2
g7
tp1143
sS'KP60'
p1144
(g286
g236
tp1145
sS'KP67'
p1146
(g142
g7
tp1147
sS'KOKM'
p1148
(g41
g7
tp1149
sS'KCPW'
p1150
(g532
g236
tp1151
sS'K7R3'
p1152
(g38
g7
tp1153
sS'XPA1'
p1154
(g264
g7
tp1155
sS'KRWF'
p1156
(g41
g7
tp1157
sS'KSPW'
p1158
(g41
g7
tp1159
sS'KSPR'
p1160
(g38
g7
tp1161
sS'QBKI'
p1162
(g63
g7
tp1163
sS'QCNI'
p1164
(g20
g7
tp1165
sS'XLES'
p1166
(g264
g7
tp1167
sS'K46U'
p1168
(VAmerica/Boise
p1169
g95
tp1170
sS'KVCT'
p1171
(g173
g7
tp1172
sS'KBFD'
p1173
(g85
g17
tp1174
sS'KSPF'
p1175
(g949
g236
tp1176
sS'KSPG'
p1177
(g229
g17
tp1178
sS'KSPD'
p1179
(g1025
g236
tp1180
sS'KBJN'
p1181
(g298
g80
tp1182
sS'KSPB'
p1183
(g106
g80
tp1184
sS'KSPA'
p1185
(g13
g17
tp1186
sS'KSPL'
p1187
(g142
g7
tp1188
sS'K46D'
p1189
(g10
g7
tp1190
sS'KSPI'
p1191
(g38
g7
tp1192
sS'KOXR'
p1193
(g486
g80
tp1194
sS'XHRS'
p1195
(g212
g7
tp1196
sS'KBLI'
p1197
(g106
g80
tp1198
sS'KBLH'
p1199
(g410
g50
tp1200
sS'KOXV'
p1201
(g63
g7
tp1202
sS'KBLM'
p1203
(g669
g17
tp1204
sS'K26N'
p1205
(g310
g17
tp1206
sS'K1D1'
p1207
(g173
g7
tp1208
sS'KXIH'
p1209
(g2
g7
tp1210
sS'KBJJ'
p1211
(g13
g17
tp1212
sS'KBLF'
p1213
(g13
g17
tp1214
sS'KVMR'
p1215
(g173
g7
tp1216
sS'K1D7'
p1217
(g142
g7
tp1218
sS'KOXB'
p1219
(g415
g17
tp1220
sS'KOXC'
p1221
(g23
g17
tp1222
sS'QTKI'
p1223
(g20
g7
tp1224
sS'KOXI'
p1225
(g462
g399
tp1226
sS'KBLV'
p1227
(g38
g7
tp1228
sS'KBLU'
p1229
(g364
g80
tp1230
sS'K1V6'
p1231
(g232
g236
tp1232
sS'K1V4'
p1233
(g529
g17
tp1234
sS'K13K'
p1235
(g173
g7
tp1236
sS'KMZG'
p1237
(VAmerica/Monterrey
p1238
g3
(S'America/Monterrey'
p1239
I-24060
I0
S'LMT'
p1240
tp1241
Rp1242
tp1243
sS'QCES'
p1244
(g10
g7
tp1245
sS'KBFU'
p1246
(g232
g236
tp1247
sS'QSAI'
p1248
(g2
g7
tp1249
sS'KTMB'
p1250
(g229
g17
tp1251
sS'KPMV'
p1252
(g41
g7
tp1253
sS'QCEI'
p1254
(g2
g7
tp1255
sS'KTMA'
p1256
(g53
g17
tp1257
sS'QSAS'
p1258
(g173
g7
tp1259
sS'PATO'
p1260
(g1071
g32
tp1261
sS'KTME'
p1262
(g41
g7
tp1263
sS'KTMK'
p1264
(g166
g80
tp1265
sS'KTMH'
p1266
(g532
g236
tp1267
sS'KMNZ'
p1268
(g191
g7
tp1269
sS'KPMU'
p1270
(g38
g7
tp1271
sS'KONL'
p1272
(g191
g7
tp1273
sS'KONM'
p1274
(g532
g236
tp1275
sS'K04W'
p1276
(g2
g7
tp1277
sS'K04V'
p1278
(g532
g236
tp1279
sS'KONA'
p1280
(g163
g7
tp1281
sS'K28K'
p1282
NsS'K28J'
p1283
(g13
g17
tp1284
sS'QHBS'
p1285
(g173
g7
tp1286
sS'XSYS'
p1287
(g66
g7
tp1288
sS'KONX'
p1289
(g85
g17
tp1290
sS'KMNH'
p1291
(g291
g236
tp1292
sS'KMNI'
p1293
(g71
g17
tp1294
sS'KMNN'
p1295
(g53
g17
tp1296
sS'XSYI'
p1297
(g41
g7
tp1298
sS'KMNM'
p1299
(VAmerica/Menominee
p1300
g3
(S'America/Menominee'
p1301
I-21000
I0
S'LMT'
p1302
tp1303
Rp1304
tp1305
sS'KH78'
p1306
NsS'QAKI'
p1307
(g63
g7
tp1308
sS'K0J4'
p1309
(g307
g7
tp1310
sS'KONT'
p1311
(g76
g80
tp1312
sS'KMNE'
p1313
(g63
g7
tp1314
sS'K2J9'
p1315
(g35
g17
tp1316
sS'KIAH'
p1317
(g41
g7
tp1318
sS'KIAG'
p1319
(g71
g17
tp1320
sS'KIAD'
p1321
(g120
g17
tp1322
sS'KGMU'
p1323
(g229
g17
tp1324
sS'KIAB'
p1325
(g142
g7
tp1326
sS'KGMJ'
p1327
(g20
g7
tp1328
sS'KGCC'
p1329
(g232
g236
tp1330
sS'KXNA'
p1331
(g20
g7
tp1332
sS'KIWI'
p1333
(VAmerica/New_York
p1334
g17
tp1335
sS'KE80'
p1336
(g532
g236
tp1337
sS'XMES'
p1338
(g66
g7
tp1339
sS'KRSP'
p1340
(g120
g17
tp1341
sS'KRSV'
p1342
(g590
g399
tp1343
sS'KRSW'
p1344
(g13
g17
tp1345
sS'KCKV'
p1346
(g496
g7
tp1347
sS'KRSN'
p1348
(g2
g7
tp1349
sS'KRSL'
p1350
(g191
g7
tp1351
sS'KGCM'
p1352
(g41
g7
tp1353
sS'KPCW'
p1354
(g229
g17
tp1355
sS'KRAP'
p1356
(g949
g236
tp1357
sS'KEET'
p1358
(g307
g7
tp1359
sS'KPCZ'
p1360
(g38
g7
tp1361
sS'KEEO'
p1362
(g493
g236
tp1363
sS'KEEN'
p1364
(g529
g17
tp1365
sS'QPIS'
p1366
(g66
g7
tp1367
sS'KPCM'
p1368
(g229
g17
tp1369
sS'KEED'
p1370
(g410
g50
tp1371
sS'KRAL'
p1372
(g76
g80
tp1373
sS'KRAM'
p1374
(g307
g7
tp1375
sS'XBO1'
p1376
(g212
g7
tp1377
sS'KTTD'
p1378
(g106
g80
tp1379
sS'KISM'
p1380
(g13
g17
tp1381
sS'KISO'
p1382
(g120
g17
tp1383
sS'QNII'
p1384
(g63
g7
tp1385
sS'KPMP'
p1386
(g71
g17
tp1387
sS'KRAC'
p1388
(g38
g7
tp1389
sS'KY22'
p1390
(g1025
g236
tp1391
sS'KISW'
p1392
(g38
g7
tp1393
sS'KGCD'
p1394
(g156
g80
tp1395
sS'KISQ'
p1396
(g682
g7
tp1397
sS'KISP'
p1398
(g415
g17
tp1399
sS'KY23'
p1400
(g163
g7
tp1401
sS'KGCN'
p1402
(g46
g50
tp1403
sS'KPMD'
p1404
(g156
g80
tp1405
sS'KRAW'
p1406
(g63
g7
tp1407
sS'KGCK'
p1408
(g66
g7
tp1409
sS'KRAS'
p1410
(g142
g7
tp1411
sS'KHEZ'
p1412
(g163
g7
tp1413
sS'KHEY'
p1414
(g220
g7
tp1415
sS'XME1'
p1416
(g66
g7
tp1417
sS'KHER'
p1418
(VAmerica/Denver
p1419
g236
tp1420
sS'KHES'
p1421
(g106
g80
tp1422
sS'KHEQ'
p1423
(g1025
g236
tp1424
sS'KHEI'
p1425
(g1025
g236
tp1426
sS'KHEF'
p1427
(g434
g17
tp1428
sS'QLES'
p1429
(g191
g7
tp1430
sS'KF17'
p1431
(g20
g7
tp1432
sS'PAIK'
p1433
(g88
g32
tp1434
sS'PAII'
p1435
(g1068
g32
tp1436
sS'PAIN'
p1437
(g1071
g32
tp1438
sS'PAIL'
p1439
(g114
g32
tp1440
sS'PAIM'
p1441
(VAmerica/Anchorage
p1442
g32
tp1443
sS'KNEW'
p1444
(g682
g7
tp1445
sS'KPQN'
p1446
(g173
g7
tp1447
sS'PAIG'
p1448
(VAmerica/Anchorage
p1449
g32
tp1450
sS'KPQL'
p1451
(g307
g7
tp1452
sS'PAIZ'
p1453
(g514
g32
tp1454
sS'KNEN'
p1455
(g13
g17
tp1456
sS'QFDI'
p1457
(g20
g7
tp1458
sS'PAIW'
p1459
(VAmerica/Nome
p1460
g102
tp1461
sS'KCGF'
p1462
(g13
g17
tp1463
sS'KAGS'
p1464
(g13
g17
tp1465
sS'KHYA'
p1466
(g529
g17
tp1467
sS'KCGC'
p1468
(g229
g17
tp1469
sS'KSCR'
p1470
(g434
g17
tp1471
sS'KAGZ'
p1472
(g191
g7
tp1473
sS'KUSE'
p1474
(g35
g17
tp1475
sS'KLIC'
p1476
(g949
g236
tp1477
sS'KCGI'
p1478
(g38
g7
tp1479
sS'KSCK'
p1480
(g215
g80
tp1481
sS'KHYS'
p1482
(g10
g7
tp1483
sS'KAGC'
p1484
(g434
g17
tp1485
sS'KSCH'
p1486
(g23
g17
tp1487
sS'KCGS'
p1488
(g310
g17
tp1489
sS'KHYW'
p1490
(g434
g17
tp1491
sS'K1N7'
p1492
(g669
g17
tp1493
sS'XGHS'
p1494
(g264
g7
tp1495
sS'KLIT'
p1496
(g2
g7
tp1497
sS'KSCF'
p1498
(g163
g7
tp1499
sS'K5C1'
p1500
(g191
g7
tp1501
sS'KCGX'
p1502
(g496
g7
tp1503
sS'XNOR'
p1504
(g66
g7
tp1505
sS'KHKS'
p1506
(g203
g7
tp1507
sS'KAUS'
p1508
(g142
g7
tp1509
sS'KCIC'
p1510
(g215
g80
tp1511
sS'KT77'
p1512
(g1061
g1065
tp1513
sS'KT70'
p1514
(g66
g7
tp1515
sS'KCID'
p1516
(g163
g7
tp1517
sS'KAUH'
p1518
(g142
g7
tp1519
sS'KAUO'
p1520
(g220
g7
tp1521
sS'KAUN'
p1522
(g215
g80
tp1523
sS'KAUM'
p1524
(g2
g7
tp1525
sS'KAUB'
p1526
(g220
g7
tp1527
sS'KCIR'
p1528
(g38
g7
tp1529
sS'KAUG'
p1530
(VAmerica/New_York
p1531
g17
tp1532
sS'KAUD'
p1533
(g203
g7
tp1534
sS'KDSV'
p1535
(g120
g17
tp1536
sS'XSW1'
p1537
(g66
g7
tp1538
sS'KNE0'
p1539
(g291
g236
tp1540
sS'KFCH'
p1541
(g486
g80
tp1542
sS'KFCI'
p1543
(g120
g17
tp1544
sS'KFCS'
p1545
(g291
g236
tp1546
sS'K1A5'
p1547
(g53
g17
tp1548
sS'XCRI'
p1549
(g163
g7
tp1550
sS'KDSM'
p1551
(g63
g7
tp1552
sS'KSAT'
p1553
(g191
g7
tp1554
sS'K3K3'
p1555
(g264
g7
tp1556
sS'K3K7'
p1557
(g264
g7
tp1558
sS'KLGA'
p1559
(g415
g17
tp1560
sS'KLGB'
p1561
(g298
g80
tp1562
sS'KLGC'
p1563
(g220
g7
tp1564
sS'XCRE'
p1565
(g20
g7
tp1566
sS'KSQI'
p1567
(g38
g7
tp1568
sS'KANJ'
p1569
(g133
g137
tp1570
sS'K7L2'
p1571
(g66
g7
tp1572
sS'KSQL'
p1573
(g106
g80
tp1574
sS'KJZP'
p1575
(g35
g17
tp1576
sS'KBOW'
p1577
(g13
g17
tp1578
sS'KLND'
p1579
(g810
g236
tp1580
sS'KBOS'
p1581
(g117
g17
tp1582
sS'KDOV'
p1583
(g415
g17
tp1584
sS'KVLL'
p1585
(g245
g137
tp1586
sS'KJWX'
p1587
(g120
g17
tp1588
sS'XWVS'
p1589
(g264
g7
tp1590
sS'QNKI'
p1591
(g63
g7
tp1592
sS'KVLD'
p1593
(g53
g17
tp1594
sS'KBOK'
p1595
(g196
g80
tp1596
sS'KVLA'
p1597
(g38
g7
tp1598
sS'KBOI'
p1599
(VAmerica/Boise
p1600
g95
tp1601
sS'KDAN'
p1602
(g434
g17
tp1603
sS'KDAL'
p1604
(g173
g7
tp1605
sS'KPQI'
p1606
(g315
g17
tp1607
sS'KP53'
p1608
(g956
g137
tp1609
sS'KW22'
p1610
(g71
g17
tp1611
sS'KDAG'
p1612
(g298
g80
tp1613
sS'KDAB'
p1614
(g13
g17
tp1615
sS'KW29'
p1616
(g310
g17
tp1617
sS'KP58'
p1618
(g133
g137
tp1619
sS'KP59'
p1620
(g38
g7
tp1621
sS'KZZV'
p1622
(g13
g17
tp1623
sS'KDAY'
p1624
(g35
g17
tp1625
sS'KDAW'
p1626
(g315
g17
tp1627
sS'XPPS'
p1628
(g212
g7
tp1629
sS'KNEL'
p1630
(g669
g17
tp1631
sS'KVRB'
p1632
(g229
g17
tp1633
sS'KLG5'
p1634
(g10
g7
tp1635
sS'KN81'
p1636
(g669
g17
tp1637
sS'K4C0'
p1638
(g163
g7
tp1639
sS'QEKS'
p1640
(g173
g7
tp1641
sS'KOOA'
p1642
(g2
g7
tp1643
sS'KSFZ'
p1644
(g117
g17
tp1645
sS'XDR1'
p1646
(g949
g236
tp1647
sS'XHES'
p1648
(g212
g7
tp1649
sS'QPTS'
p1650
(g191
g7
tp1651
sS'KMOD'
p1652
(g364
g80
tp1653
sS'KMOB'
p1654
(g682
g7
tp1655
sS'KMOT'
p1656
(g264
g7
tp1657
sS'KMOP'
p1658
(g133
g137
tp1659
sS'KHVE'
p1660
(g286
g236
tp1661
sS'KMOR'
p1662
(g53
g17
tp1663
sS'KMOX'
p1664
(g41
g7
tp1665
sS'KFVX'
p1666
(g85
g17
tp1667
sS'KDFI'
p1668
(g35
g17
tp1669
sS'K7BM'
p1670
(g532
g236
tp1671
sS'KCGE'
p1672
(g85
g17
tp1673
sS'KSGE'
p1674
(g286
g236
tp1675
sS'Q03I'
p1676
(g63
g7
tp1677
sS'K06D'
p1678
(g10
g7
tp1679
sS'K4CR'
p1680
(g232
g236
tp1681
sS'KSFO'
p1682
(g106
g80
tp1683
sS'QBXI'
p1684
(g63
g7
tp1685
sS'QLUI'
p1686
(g20
g7
tp1687
sS'K4CO'
p1688
(g163
g7
tp1689
sS'KHYI'
p1690
(g142
g7
tp1691
sS'KITH'
p1692
(g310
g17
tp1693
sS'KPLR'
p1694
(g307
g7
tp1695
sS'KPLU'
p1696
(g106
g80
tp1697
sS'QMIS'
p1698
(g173
g7
tp1699
sS'KBRX'
p1700
(g291
g236
tp1701
sS'KITR'
p1702
(g1025
g236
tp1703
sS'QMII'
p1704
(g63
g7
tp1705
sS'KPLN'
p1706
(g133
g137
tp1707
sS'KPLB'
p1708
(g23
g17
tp1709
sS'KMLF'
p1710
(VAmerica/Denver
p1711
g236
tp1712
sS'K2M8'
p1713
(g38
g7
tp1714
sS'KHYR'
p1715
(g163
g7
tp1716
sS'KETN'
p1717
(g191
g7
tp1718
sS'KWDR'
p1719
(g53
g17
tp1720
sS'KCXY'
p1721
(g310
g17
tp1722
sS'KCXW'
p1723
(g2
g7
tp1724
sS'K2M2'
p1725
(g496
g7
tp1726
sS'KCXU'
p1727
(g35
g17
tp1728
sS'KETB'
p1729
(g682
g7
tp1730
sS'KETC'
p1731
(g120
g17
tp1732
sS'KWDG'
p1733
(g142
g7
tp1734
sS'KCXL'
p1735
(VAmerica/Santa_Isabel
p1736
g883
tp1737
sS'KHDO'
p1738
(g10
g7
tp1739
sS'KHDN'
p1740
(g493
g236
tp1741
sS'KHDC'
p1742
(g682
g7
tp1743
sS'KCXE'
p1744
(g85
g17
tp1745
sS'KHDE'
p1746
(g10
g7
tp1747
sS'KHD7'
p1748
(g66
g7
tp1749
sS'KWVI'
p1750
(g215
g80
tp1751
sS'KGOP'
p1752
(g142
g7
tp1753
sS'KWVL'
p1754
(g1531
g17
tp1755
sS'KHYX'
p1756
(g245
g137
tp1757
sS'KI19'
p1758
(g53
g17
tp1759
sS'KI16'
p1760
(g13
g17
tp1761
sS'QSBI'
p1762
(g41
g7
tp1763
sS'XAVO'
p1764
(g41
g7
tp1765
sS'KTLS'
p1766
(g10
g7
tp1767
sS'KCGZ'
p1768
(g178
g50
tp1769
sS'QSBS'
p1770
(g173
g7
tp1771
sS'KTLH'
p1772
(g35
g17
tp1773
sS'KSCD'
p1774
(g307
g7
tp1775
sS'QAFI'
p1776
(g20
g7
tp1777
sS'KD60'
p1778
(g212
g7
tp1779
sS'KNZC'
p1780
(g13
g17
tp1781
sS'KLZU'
p1782
(g53
g17
tp1783
sS'KCVS'
p1784
(g949
g236
tp1785
sS'KLZZ'
p1786
(g191
g7
tp1787
sS'KCVX'
p1788
(g376
g137
tp1789
sS'KCVG'
p1790
(g35
g17
tp1791
sS'XMD1'
p1792
(g10
g7
tp1793
sS'KNZW'
p1794
(g315
g17
tp1795
sS'KCVC'
p1796
(g53
g17
tp1797
sS'KNZY'
p1798
(g127
g80
tp1799
sS'KCVN'
p1800
(g949
g236
tp1801
sS'KCVO'
p1802
(g166
g80
tp1803
sS'KCVH'
p1804
(g215
g80
tp1805
sS'KHJH'
p1806
(g142
g7
tp1807
sS'KFBC'
p1808
(g53
g17
tp1809
sS'KAVC'
p1810
(g85
g17
tp1811
sS'KFBG'
p1812
(g85
g17
tp1813
sS'KDRT'
p1814
(g66
g7
tp1815
sS'KAVL'
p1816
(g229
g17
tp1817
sS'KCIN'
p1818
(g20
g7
tp1819
sS'KFBL'
p1820
(g63
g7
tp1821
sS'KDRC'
p1822
(g232
g236
tp1823
sS'KDRA'
p1824
(g298
g80
tp1825
sS'KFBR'
p1826
(g286
g236
tp1827
sS'KAVP'
p1828
(g415
g17
tp1829
sS'KAVQ'
p1830
(g178
g50
tp1831
sS'K92S'
p1832
(g196
g80
tp1833
sS'KDRI'
p1834
(g63
g7
tp1835
sS'KF00'
p1836
(g173
g7
tp1837
sS'KDRO'
p1838
(g493
g236
tp1839
sS'KF05'
p1840
(g10
g7
tp1841
sS'KMIC'
p1842
(g63
g7
tp1843
sS'KA39'
p1844
(g178
g50
tp1845
sS'KAUW'
p1846
(g38
g7
tp1847
sS'QATI'
p1848
(g20
g7
tp1849
sS'KHKY'
p1850
(g13
g17
tp1851
sS'KTZR'
p1852
(g53
g17
tp1853
sS'KTZV'
p1854
(g220
g7
tp1855
sS'KHVS'
p1856
(g71
g17
tp1857
sS'KRRF'
p1858
(g229
g17
tp1859
sS'KGVL'
p1860
(g53
g17
tp1861
sS'KIDV'
p1862
(g532
g236
tp1863
sS'KRRL'
p1864
(g38
g7
tp1865
sS'KCMA'
p1866
(g76
g80
tp1867
sS'KGVE'
p1868
(g85
g17
tp1869
sS'KEFT'
p1870
(g38
g7
tp1871
sS'KGON'
p1872
(g669
g17
tp1873
sS'KPBG'
p1874
(g23
g17
tp1875
sS'KPBF'
p1876
(g163
g7
tp1877
sS'K6A1'
p1878
(g35
g17
tp1879
sS'K6A2'
p1880
(g35
g17
tp1881
sS'KGVT'
p1882
(g173
g7
tp1883
sS'KPBI'
p1884
(g71
g17
tp1885
sS'KPBH'
p1886
(g203
g7
tp1887
sS'KHVR'
p1888
(g373
g236
tp1889
sS'KT65'
p1890
(g142
g7
tp1891
sS'KACY'
p1892
(g310
g17
tp1893
sS'KT62'
p1894
(g832
g236
tp1895
sS'KX60'
p1896
(g229
g17
tp1897
sS'KCIU'
p1898
(g133
g137
tp1899
sS'K3HT'
p1900
(g373
g236
tp1901
sS'KHNR'
p1902
(g41
g7
tp1903
sS'KPPA'
p1904
(g66
g7
tp1905
sS'KPPO'
p1906
(g462
g399
tp1907
sS'PAHV'
p1908
(g1071
g32
tp1909
sS'PAHP'
p1910
(VAmerica/Nome
p1911
g102
tp1912
sS'PAHS'
p1913
(g477
g32
tp1914
sS'KPPF'
p1915
(g41
g7
tp1916
sS'PAHY'
p1917
(VAmerica/Sitka
p1918
g3
(S'America/Sitka'
p1919
I-32460
I0
S'LMT'
p1920
tp1921
Rp1922
tp1923
sS'PAHX'
p1924
(g323
g32
tp1925
sS'PAHZ'
p1926
(VAmerica/Anchorage
p1927
g32
tp1928
sS'PAHC'
p1929
(g323
g32
tp1930
sS'KIDI'
p1931
(g434
g17
tp1932
sS'QFCI'
p1933
(g63
g7
tp1934
sS'PAHO'
p1935
(g526
g32
tp1936
sS'PAHN'
p1937
(VAmerica/Whitehorse
p1938
g734
tp1939
sS'KPPQ'
p1940
(g203
g7
tp1941
sS'QFCM'
p1942
(g163
g7
tp1943
sS'KCDC'
p1944
(g1711
g236
tp1945
sS'KCDA'
p1946
(g529
g17
tp1947
sS'KLHM'
p1948
(g215
g80
tp1949
sS'KCDD'
p1950
(g2
g7
tp1951
sS'KULS'
p1952
(g264
g7
tp1953
sS'KCDJ'
p1954
(g63
g7
tp1955
sS'KHXD'
p1956
(g229
g17
tp1957
sS'K9A5'
p1958
(g390
g17
tp1959
sS'K9A4'
p1960
(g496
g7
tp1961
sS'KCDN'
p1962
(g71
g17
tp1963
sS'KAHQ'
p1964
(g173
g7
tp1965
sS'KCDR'
p1966
(g949
g236
tp1967
sS'KLHX'
p1968
(g949
g236
tp1969
sS'KAHN'
p1970
(g53
g17
tp1971
sS'KLHZ'
p1972
(g85
g17
tp1973
sS'KCDW'
p1974
(g669
g17
tp1975
sS'KY19'
p1976
(g66
g7
tp1977
sS'KY70'
p1978
(g376
g137
tp1979
sS'KJTC'
p1980
(VAmerica/Phoenix
p1981
g50
tp1982
sS'KULM'
p1983
(g20
g7
tp1984
sS'KY14'
p1985
(g173
g7
tp1986
sS'KLHW'
p1987
(g13
g17
tp1988
sS'KLHV'
p1989
(g120
g17
tp1990
sS'K3FU'
p1991
(g10
g7
tp1992
sS'KM91'
p1993
(g307
g7
tp1994
sS'XSIO'
p1995
(g173
g7
tp1996
sS'KW32'
p1997
(g310
g17
tp1998
sS'KW31'
p1999
(g85
g17
tp2000
sS'XSID'
p2001
(g41
g7
tp2002
sS'XSIG'
p2003
(g2
g7
tp2004
sS'KENL'
p2005
(g38
g7
tp2006
sS'QWII'
p2007
(g20
g7
tp2008
sS'KARM'
p2009
(g173
g7
tp2010
sS'KCNM'
p2011
(g291
g236
tp2012
sS'PFCL'
p2013
(g477
g32
tp2014
sS'XDSM'
p2015
(g63
g7
tp2016
sS'KCRE'
p2017
(g310
g17
tp2018
sS'KHRL'
p2019
(g142
g7
tp2020
sS'XDST'
p2021
(g20
g7
tp2022
sS'KENV'
p2023
(g815
g80
tp2024
sS'KHND'
p2025
(g127
g80
tp2026
sS'KYUM'
p2027
(g410
g50
tp2028
sS'KHRJ'
p2029
(g85
g17
tp2030
sS'KJFX'
p2031
(g496
g7
tp2032
sS'KJFZ'
p2033
(g13
g17
tp2034
sS'KLFK'
p2035
(g20
g7
tp2036
sS'KLFI'
p2037
(g85
g17
tp2038
sS'XLDS'
p2039
(g212
g7
tp2040
sS'KLFT'
p2041
(g163
g7
tp2042
sS'K1F0'
p2043
(g142
g7
tp2044
sS'KJFK'
p2045
(g415
g17
tp2046
sS'QWAS'
p2047
(g1025
g236
tp2048
sS'KBNW'
p2049
(g63
g7
tp2050
sS'K3F3'
p2051
(g63
g7
tp2052
sS'KBNY'
p2053
(g215
g80
tp2054
sS'KDNN'
p2055
(g35
g17
tp2056
sS'KDNL'
p2057
(g229
g17
tp2058
sS'KDNK'
p2059
(g63
g7
tp2060
sS'KNBT'
p2061
(g85
g17
tp2062
sS'KBNA'
p2063
(g307
g7
tp2064
sS'KDNV'
p2065
(g590
g399
tp2066
sS'KDNS'
p2067
(g41
g7
tp2068
sS'KVOA'
p2069
(g220
g7
tp2070
sS'KBNL'
p2071
(g13
g17
tp2072
sS'KBNO'
p2073
(g156
g80
tp2074
sS'KLGD'
p2075
(g76
g80
tp2076
sS'KWWR'
p2077
(g10
g7
tp2078
sS'XPMS'
p2079
(g66
g7
tp2080
sS'K3T5'
p2081
(g173
g7
tp2082
sS'KBDG'
p2083
(g373
g236
tp2084
sS'K8B0'
p2085
(g489
g17
tp2086
sS'KWWD'
p2087
(g310
g17
tp2088
sS'KTKX'
p2089
(g203
g7
tp2090
sS'QTQI'
p2091
(g2
g7
tp2092
sS'KBDE'
p2093
(g20
g7
tp2094
sS'PASX'
p2095
(g526
g32
tp2096
sS'KOPM'
p2097
(g1238
g1242
tp2098
sS'QNVI'
p2099
(g63
g7
tp2100
sS'KTKI'
p2101
(g173
g7
tp2102
sS'KTKC'
p2103
(g41
g7
tp2104
sS'QAGI'
p2105
(g20
g7
tp2106
sS'KOLV'
p2107
(g38
g7
tp2108
sS'KOLU'
p2109
(g142
g7
tp2110
sS'KOLS'
p2111
(VAmerica/Hermosillo
p2112
g639
tp2113
sS'KKY8'
p2114
(g307
g7
tp2115
sS'KOLZ'
p2116
(g163
g7
tp2117
sS'KOLY'
p2118
(g682
g7
tp2119
sS'KOLF'
p2120
(g232
g236
tp2121
sS'KOLG'
p2122
(g163
g7
tp2123
sS'KOLD'
p2124
(g315
g17
tp2125
sS'KOLE'
p2126
(g85
g17
tp2127
sS'KQPR'
p2128
(g291
g236
tp2129
sS'PAVD'
p2130
(VAmerica/Anchorage
p2131
g32
tp2132
sS'KICT'
p2133
(g142
g7
tp2134
sS'KMHE'
p2135
(g191
g7
tp2136
sS'KN60'
p2137
(g264
g7
tp2138
sS'KICR'
p2139
(g10
g7
tp2140
sS'K3TH'
p2141
(g320
g236
tp2142
sS'KMHK'
p2143
(g173
g7
tp2144
sS'KMHL'
p2145
(g63
g7
tp2146
sS'KMHR'
p2147
(g215
g80
tp2148
sS'KMHS'
p2149
(g106
g80
tp2150
sS'KMHT'
p2151
(g117
g17
tp2152
sS'KMHV'
p2153
(g156
g80
tp2154
sS'KICL'
p2155
(g41
g7
tp2156
sS'KEKN'
p2157
(g434
g17
tp2158
sS'KBHM'
p2159
(g307
g7
tp2160
sS'QAUI'
p2161
(g20
g7
tp2162
sS'KTYS'
p2163
(g53
g17
tp2164
sS'KTYQ'
p2165
(g462
g399
tp2166
sS'K6V5'
p2167
(g1025
g236
tp2168
sS'KBHK'
p2169
(g291
g236
tp2170
sS'XOSC'
p2171
(g63
g7
tp2172
sS'KROC'
p2173
(g434
g17
tp2174
sS'KGWO'
p2175
(g203
g7
tp2176
sS'KRUE'
p2177
(g63
g7
tp2178
sS'KPAT'
p2179
(g532
g236
tp2180
sS'KRUG'
p2181
(g66
g7
tp2182
sS'KGWB'
p2183
(g395
g399
tp2184
sS'QPKI'
p2185
(g63
g7
tp2186
sS'KPAC'
p2187
(g949
g236
tp2188
sS'KSWW'
p2189
(g66
g7
tp2190
sS'XMCS'
p2191
(g66
g7
tp2192
sS'KRUT'
p2193
(g529
g17
tp2194
sS'XMCW'
p2195
(g63
g7
tp2196
sS'KGWR'
p2197
(g142
g7
tp2198
sS'KPAH'
p2199
(g682
g7
tp2200
sS'KPAN'
p2201
(g178
g50
tp2202
sS'KPAO'
p2203
(g364
g80
tp2204
sS'KD55'
p2205
(g191
g7
tp2206
sS'K2SL'
p2207
(g106
g80
tp2208
sS'KRCM'
p2209
(g63
g7
tp2210
sS'QCGI'
p2211
(g63
g7
tp2212
sS'KRCA'
p2213
(g949
g236
tp2214
sS'KRCE'
p2215
(g142
g7
tp2216
sS'KRCZ'
p2217
(g434
g17
tp2218
sS'QMNI'
p2219
(g2
g7
tp2220
sS'KGAO'
p2221
(g203
g7
tp2222
sS'XMC4'
p2223
(g212
g7
tp2224
sS'KRCR'
p2225
(g462
g399
tp2226
sS'KGAD'
p2227
(g307
g7
tp2228
sS'KGAG'
p2229
(g10
g7
tp2230
sS'KGAF'
p2231
(g142
g7
tp2232
sS'KRCV'
p2233
(g532
g236
tp2234
sS'QPYI'
p2235
(g20
g7
tp2236
sS'KEUL'
p2237
(g1600
g95
tp2238
sS'KWEY'
p2239
(g1169
g95
tp2240
sS'KEUF'
p2241
(g220
g7
tp2242
sS'KCYS'
p2243
(g291
g236
tp2244
sS'QRUM'
p2245
(g41
g7
tp2246
sS'KJGG'
p2247
(g310
g17
tp2248
sS'KYIP'
p2249
(g245
g137
tp2250
sS'KCYD'
p2251
(g163
g7
tp2252
sS'KROS'
p2253
(g2
g7
tp2254
sS'KNGZ'
p2255
(g106
g80
tp2256
sS'PAOR'
p2257
(VAmerica/Anchorage
p2258
g32
tp2259
sS'KPWK'
p2260
(g38
g7
tp2261
sS'PAOT'
p2262
(g88
g32
tp2263
sS'PAOU'
p2264
NsS'KPWA'
p2265
(g142
g7
tp2266
sS'KNGP'
p2267
(VAmerica/Monterrey
p2268
g1242
tp2269
sS'KPWC'
p2270
(g20
g7
tp2271
sS'KPWD'
p2272
(g291
g236
tp2273
sS'KNGU'
p2274
(g310
g17
tp2275
sS'PAOH'
p2276
(VAmerica/Juneau
p2277
g1046
tp2278
sS'KPWT'
p2279
(g965
g523
tp2280
sS'PAOM'
p2281
(VAmerica/Nome
p2282
g102
tp2283
sS'PAOO'
p2284
(g2282
g102
tp2285
sS'KLWT'
p2286
(g373
g236
tp2287
sS'XTH1'
p2288
(g10
g7
tp2289
sS'KLWV'
p2290
(VAmerica/Indiana/Petersburg
p2291
g3
(S'America/Indiana/Petersburg'
p2292
I-20940
I0
S'LMT'
p2293
tp2294
Rp2295
tp2296
sS'KAIZ'
p2297
(g2
g7
tp2298
sS'KLWS'
p2299
(g76
g80
tp2300
sS'KCEF'
p2301
(g529
g17
tp2302
sS'KCEC'
p2303
(g106
g80
tp2304
sS'KLWD'
p2305
(g63
g7
tp2306
sS'KCEY'
p2307
(g682
g7
tp2308
sS'KLWA'
p2309
(g956
g137
tp2310
sS'KLWB'
p2311
(g71
g17
tp2312
sS'KLWC'
p2313
(g41
g7
tp2314
sS'KAIG'
p2315
(g38
g7
tp2316
sS'QUNI'
p2317
(g63
g7
tp2318
sS'KCEW'
p2319
(g35
g17
tp2320
sS'KAID'
p2321
(g395
g399
tp2322
sS'KAIB'
p2323
(g810
g236
tp2324
sS'KAIA'
p2325
(g1025
g236
tp2326
sS'QLKS'
p2327
(g173
g7
tp2328
sS'KEGE'
p2329
(g532
g236
tp2330
sS'KCWV'
p2331
(g13
g17
tp2332
sS'KNUI'
p2333
(g85
g17
tp2334
sS'KEGC'
p2335
NsS'KLYV'
p2336
(g173
g7
tp2337
sS'KUCP'
p2338
(g71
g17
tp2339
sS'KEGI'
p2340
(g307
g7
tp2341
sS'KNUC'
p2342
(g298
g80
tp2343
sS'KHIB'
p2344
(g2
g7
tp2345
sS'KEGT'
p2346
(g142
g7
tp2347
sS'KEGV'
p2348
(g38
g7
tp2349
sS'KCWC'
p2350
(g191
g7
tp2351
sS'KLYH'
p2352
(g434
g17
tp2353
sS'KHIE'
p2354
(g117
g17
tp2355
sS'KUCA'
p2356
(g415
g17
tp2357
sS'KCWN'
p2358
(g291
g236
tp2359
sS'KHII'
p2360
(g815
g80
tp2361
sS'KNUQ'
p2362
(g106
g80
tp2363
sS'KCWI'
p2364
(g203
g7
tp2365
sS'KFMM'
p2366
(g949
g236
tp2367
sS'KFMN'
p2368
(g810
g236
tp2369
sS'KFMH'
p2370
(g529
g17
tp2371
sS'KAWG'
p2372
(g163
g7
tp2373
sS'KFME'
p2374
(g310
g17
tp2375
sS'KAWM'
p2376
(g203
g7
tp2377
sS'KRBG'
p2378
(g166
g80
tp2379
sS'KAWO'
p2380
(g106
g80
tp2381
sS'PFEL'
p2382
(VAmerica/Nome
p2383
g102
tp2384
sS'KFMY'
p2385
(g13
g17
tp2386
sS'KDQH'
p2387
(g229
g17
tp2388
sS'K7R4'
p2389
(g203
g7
tp2390
sS'K7R5'
p2391
(g163
g7
tp2392
sS'KN12'
p2393
(g669
g17
tp2394
sS'KN14'
p2395
(g669
g17
tp2396
sS'KLEE'
p2397
(g13
g17
tp2398
sS'K3I2'
p2399
(g229
g17
tp2400
sS'K7R8'
p2401
(g63
g7
tp2402
sS'KLEM'
p2403
(g1025
g236
tp2404
sS'XLEO'
p2405
(g63
g7
tp2406
sS'KLEW'
p2407
(g489
g17
tp2408
sS'KGFA'
p2409
(g383
g236
tp2410
sS'KLEX'
p2411
(g35
g17
tp2412
sS'QLEM'
p2413
(g2
g7
tp2414
sS'KDMA'
p2415
(VAmerica/Phoenix
p2416
g50
tp2417
sS'KBAX'
p2418
(VAmerica/Detroit
p2419
g137
tp2420
sS'QLEI'
p2421
(g63
g7
tp2422
sS'KBAZ'
p2423
(g191
g7
tp2424
sS'KBAT'
p2425
(g1025
g236
tp2426
sS'KDMH'
p2427
(g85
g17
tp2428
sS'KDMN'
p2429
(g493
g236
tp2430
sS'KDMO'
p2431
(g63
g7
tp2432
sS'KBAM'
p2433
(g298
g80
tp2434
sS'KBAN'
p2435
(g486
g80
tp2436
sS'KDMW'
p2437
(g310
g17
tp2438
sS'KBAK'
p2439
(g395
g399
tp2440
sS'KBAD'
p2441
(g63
g7
tp2442
sS'XCDR'
p2443
(g163
g7
tp2444
sS'KBAF'
p2445
(g529
g17
tp2446
sS'KBAB'
p2447
(g215
g80
tp2448
sS'KBAC'
p2449
(g191
g7
tp2450
sS'KSAA'
p2451
(g532
g236
tp2452
sS'KJWG'
p2453
(g191
g7
tp2454
sS'KSAC'
p2455
(g215
g80
tp2456
sS'KSAD'
p2457
(g1981
g50
tp2458
sS'KSAF'
p2459
(g532
g236
tp2460
sS'KJWN'
p2461
(g307
g7
tp2462
sS'KSAN'
p2463
(g127
g80
tp2464
sS'XPD1'
p2465
(g264
g7
tp2466
sS'XPD2'
p2467
(g264
g7
tp2468
sS'KSAR'
p2469
(g38
g7
tp2470
sS'KQMG'
p2471
(g532
g236
tp2472
sS'KCKI'
p2473
(g434
g17
tp2474
sS'KSAW'
p2475
(VAmerica/Detroit
p2476
g137
tp2477
sS'KSAV'
p2478
(g13
g17
tp2479
sS'K9BB'
p2480
(g815
g80
tp2481
sS'KRST'
p2482
(g2
g7
tp2483
sS'KSAZ'
p2484
(g20
g7
tp2485
sS'KO22'
p2486
(g364
g80
tp2487
sS'KJWY'
p2488
(g173
g7
tp2489
sS'KCEU'
p2490
(g229
g17
tp2491
sS'PHBK'
p2492
(VPacific/Honolulu
p2493
g60
tp2494
sS'KSHL'
p2495
(g41
g7
tp2496
sS'K4A9'
p2497
(g390
g17
tp2498
sS'K4A6'
p2499
(g220
g7
tp2500
sS'XURB'
p2501
(g163
g7
tp2502
sS'KPSF'
p2503
(g23
g17
tp2504
sS'KOMA'
p2505
(g41
g7
tp2506
sS'KSHM'
p2507
(g291
g236
tp2508
sS'KOMH'
p2509
(g85
g17
tp2510
sS'KOMK'
p2511
(g486
g80
tp2512
sS'KOMN'
p2513
(g13
g17
tp2514
sS'KIDP'
p2515
(g41
g7
tp2516
sS'KMIB'
p2517
(g264
g7
tp2518
sS'KMIA'
p2519
(g229
g17
tp2520
sS'KJXI'
p2521
(g20
g7
tp2522
sS'KMIE'
p2523
(g395
g399
tp2524
sS'K1YT'
p2525
(g364
g80
tp2526
sS'KL35'
p2527
(g298
g80
tp2528
sS'KMIS'
p2529
(g307
g7
tp2530
sS'KIDA'
p2531
(g91
g95
tp2532
sS'XDNI'
p2533
(g41
g7
tp2534
sS'KMIW'
p2535
(g2
g7
tp2536
sS'KMIV'
p2537
(g415
g17
tp2538
sS'KMIU'
p2539
(g1238
g1242
tp2540
sS'KSLC'
p2541
(g383
g236
tp2542
sS'QJWI'
p2543
(g63
g7
tp2544
sS'KIDL'
p2545
(g203
g7
tp2546
sS'KPSN'
p2547
(g41
g7
tp2548
sS'PASD'
p2549
(g111
g32
tp2550
sS'XREE'
p2551
(g212
g7
tp2552
sS'PASA'
p2553
(g1460
g102
tp2554
sS'KVNC'
p2555
(g229
g17
tp2556
sS'PASC'
p2557
(g1071
g32
tp2558
sS'PASL'
p2559
(g1068
g32
tp2560
sS'PASM'
p2561
(g2282
g102
tp2562
sS'PASN'
p2563
NsS'PASO'
p2564
(g526
g32
tp2565
sS'PASH'
p2566
(g2383
g102
tp2567
sS'PASI'
p2568
(VAmerica/Sitka
p2569
g1922
tp2570
sS'PASK'
p2571
(g323
g32
tp2572
sS'KSYF'
p2573
(g271
g236
tp2574
sS'PASV'
p2575
(g1449
g32
tp2576
sS'PASW'
p2577
(g526
g32
tp2578
sS'PASP'
p2579
(g28
g32
tp2580
sS'KVNP'
p2581
(g203
g7
tp2582
sS'K54J'
p2583
(g35
g17
tp2584
sS'K66R'
p2585
(g173
g7
tp2586
sS'KVNY'
p2587
(g156
g80
tp2588
sS'PASY'
p2589
NsS'QKGM'
p2590
(g2
g7
tp2591
sS'KM46'
p2592
(g532
g236
tp2593
sS'KM40'
p2594
(g682
g7
tp2595
sS'KRBW'
p2596
(g71
g17
tp2597
sS'QCHI'
p2598
(g63
g7
tp2599
sS'QJEI'
p2600
(g20
g7
tp2601
sS'KRBD'
p2602
(g173
g7
tp2603
sS'QMOI'
p2604
(g20
g7
tp2605
sS'KGFK'
p2606
(g142
g7
tp2607
sS'KGFL'
p2608
(g23
g17
tp2609
sS'QMOM'
p2610
(g41
g7
tp2611
sS'KRBL'
p2612
(g106
g80
tp2613
sS'KRBO'
p2614
(g142
g7
tp2615
sS'KOJA'
p2616
(g191
g7
tp2617
sS'K4O4'
p2618
(g20
g7
tp2619
sS'K8W2'
p2620
(g85
g17
tp2621
sS'KEVM'
p2622
(g2
g7
tp2623
sS'KEVB'
p2624
(g229
g17
tp2625
sS'KPSX'
p2626
(g191
g7
tp2627
sS'KWJF'
p2628
(g156
g80
tp2629
sS'KEVV'
p2630
(g2291
g2295
tp2631
sS'KEVW'
p2632
(g383
g236
tp2633
sS'KEVU'
p2634
(g20
g7
tp2635
sS'KFSW'
p2636
(g163
g7
tp2637
sS'KI35'
p2638
(g53
g17
tp2639
sS'K36U'
p2640
(g383
g236
tp2641
sS'KGGI'
p2642
(g2
g7
tp2643
sS'KVYS'
p2644
(g38
g7
tp2645
sS'KIMT'
p2646
(g682
g7
tp2647
sS'KI39'
p2648
(g35
g17
tp2649
sS'QCOI'
p2650
(g63
g7
tp2651
sS'XATN'
p2652
(g173
g7
tp2653
sS'KAEL'
p2654
(g63
g7
tp2655
sS'QTYS'
p2656
(g191
g7
tp2657
sS'KWTR'
p2658
(g291
g236
tp2659
sS'KHSI'
p2660
(g191
g7
tp2661
sS'QADI'
p2662
(g20
g7
tp2663
sS'KLXY'
p2664
(g173
g7
tp2665
sS'XTIP'
p2666
(g163
g7
tp2667
sS'KCTZ'
p2668
(g85
g17
tp2669
sS'KHHW'
p2670
(g41
g7
tp2671
sS'KNTD'
p2672
(g486
g80
tp2673
sS'KLXT'
p2674
(g20
g7
tp2675
sS'KSEP'
p2676
(g191
g7
tp2677
sS'KCTB'
p2678
(g832
g236
tp2679
sS'KLXL'
p2680
(g20
g7
tp2681
sS'KCTD'
p2682
(g493
g236
tp2683
sS'KLXN'
p2684
(g10
g7
tp2685
sS'KCTJ'
p2686
(g220
g7
tp2687
sS'KHHG'
p2688
(g395
g399
tp2689
sS'KHHF'
p2690
(g66
g7
tp2691
sS'KFLO'
p2692
(g434
g17
tp2693
sS'KFLM'
p2694
(g71
g17
tp2695
sS'KAXO'
p2696
(g496
g7
tp2697
sS'KAXH'
p2698
(g41
g7
tp2699
sS'KFLG'
p2700
(g383
g236
tp2701
sS'KFLD'
p2702
(g682
g7
tp2703
sS'KAXA'
p2704
(g20
g7
tp2705
sS'KFLA'
p2706
(g949
g236
tp2707
sS'KFSE'
p2708
(g41
g7
tp2709
sS'KAXX'
p2710
(g232
g236
tp2711
sS'KDPL'
p2712
(g120
g17
tp2713
sS'KFLY'
p2714
(g291
g236
tp2715
sS'KDPA'
p2716
(g682
g7
tp2717
sS'KFLV'
p2718
(g20
g7
tp2719
sS'KAXV'
p2720
(g35
g17
tp2721
sS'KDPG'
p2722
(g832
g236
tp2723
sS'KFLP'
p2724
(g2
g7
tp2725
sS'KTXK'
p2726
(g63
g7
tp2727
sS'K0S9'
p2728
(g965
g523
tp2729
sS'KIXD'
p2730
(g20
g7
tp2731
sS'KSEF'
p2732
(g13
g17
tp2733
sS'KGTR'
p2734
(g682
g7
tp2735
sS'KIXA'
p2736
(g120
g17
tp2737
sS'QYAS'
p2738
(g142
g7
tp2739
sS'KWTA'
p2740
(g1025
g236
tp2741
sS'KRTN'
p2742
(g291
g236
tp2743
sS'KJSO'
p2744
(g41
g7
tp2745
sS'KGTF'
p2746
(g383
g236
tp2747
sS'KGTB'
p2748
(g415
g17
tp2749
sS'K8K2'
p2750
(g191
g7
tp2751
sS'KBPP'
p2752
(g949
g236
tp2753
sS'QPJS'
p2754
(g173
g7
tp2755
sS'QDCI'
p2756
(g63
g7
tp2757
sS'KSNL'
p2758
(g173
g7
tp2759
sS'XWAT'
p2760
(g2
g7
tp2761
sS'KSNK'
p2762
(g66
g7
tp2763
sS'QKCI'
p2764
(g63
g7
tp2765
sS'KSNA'
p2766
(g76
g80
tp2767
sS'KSNC'
p2768
(g669
g17
tp2769
sS'KSNY'
p2770
(g1025
g236
tp2771
sS'KJVW'
p2772
(g203
g7
tp2773
sS'KSNT'
p2774
(g153
g95
tp2775
sS'KSNS'
p2776
(g215
g80
tp2777
sS'KX41'
p2778
(g229
g17
tp2779
sS'QFOI'
p2780
(g20
g7
tp2781
sS'KN03'
p2782
(g310
g17
tp2783
sS'KPVJ'
p2784
(g142
g7
tp2785
sS'PANW'
p2786
(g1068
g32
tp2787
sS'PANV'
p2788
(g88
g32
tp2789
sS'K7S1'
p2790
(g832
g236
tp2791
sS'PANT'
p2792
(VAmerica/Vancouver
p2793
g523
tp2794
sS'KPVC'
p2795
(g529
g17
tp2796
sS'KPVB'
p2797
(g203
g7
tp2798
sS'KPVG'
p2799
(g310
g17
tp2800
sS'KPVF'
p2801
(g364
g80
tp2802
sS'KPVE'
p2803
(g682
g7
tp2804
sS'KPVD'
p2805
(g23
g17
tp2806
sS'PANC'
p2807
(g1071
g32
tp2808
sS'PANA'
p2809
(g664
g32
tp2810
sS'KT98'
p2811
(g142
g7
tp2812
sS'QFAI'
p2813
(g20
g7
tp2814
sS'PANI'
p2815
(g323
g32
tp2816
sS'KPVW'
p2817
(g264
g7
tp2818
sS'PANN'
p2819
(g514
g32
tp2820
sS'KPVU'
p2821
(g383
g236
tp2822
sS'KAJZ'
p2823
(g810
g236
tp2824
sS'XWA1'
p2825
(g66
g7
tp2826
sS'KNFG'
p2827
(g76
g80
tp2828
sS'KCBK'
p2829
(g264
g7
tp2830
sS'KY31'
p2831
(g133
g137
tp2832
sS'KCBM'
p2833
(g682
g7
tp2834
sS'KUNU'
p2835
(g682
g7
tp2836
sS'KAJR'
p2837
(g53
g17
tp2838
sS'KNFL'
p2839
(g156
g80
tp2840
sS'KIBM'
p2841
(g949
g236
tp2842
sS'KCBE'
p2843
(g85
g17
tp2844
sS'KCBF'
p2845
(g41
g7
tp2846
sS'KCBG'
p2847
(g63
g7
tp2848
sS'KNFW'
p2849
(g142
g7
tp2850
sS'KASN'
p2851
(g307
g7
tp2852
sS'KAJO'
p2853
(g76
g80
tp2854
sS'KAJL'
p2855
(g286
g236
tp2856
sS'KLVN'
p2857
(g63
g7
tp2858
sS'KLVM'
p2859
(g286
g236
tp2860
sS'KUNI'
p2861
(g229
g17
tp2862
sS'KLVK'
p2863
(g215
g80
tp2864
sS'KLVJ'
p2865
(g41
g7
tp2866
sS'KNSI'
p2867
(g76
g80
tp2868
sS'KASH'
p2869
(g117
g17
tp2870
sS'XTIS'
p2871
(g264
g7
tp2872
sS'PARD'
p2873
(g98
g102
tp2874
sS'PARC'
p2875
(g1034
g32
tp2876
sS'K3DU'
p2877
(g1711
g236
tp2878
sS'KVIH'
p2879
(g163
g7
tp2880
sS'KVIV'
p2881
(g66
g7
tp2882
sS'PARL'
p2883
(VAmerica/Anchorage
p2884
g32
tp2885
sS'KW13'
p2886
(g85
g17
tp2887
sS'KVIS'
p2888
(g486
g80
tp2889
sS'PARS'
p2890
(g664
g32
tp2891
sS'KMXF'
p2892
(g307
g7
tp2893
sS'KCKZ'
p2894
(g415
g17
tp2895
sS'KHUT'
p2896
(g142
g7
tp2897
sS'PARY'
p2898
(g1449
g32
tp2899
sS'KMXO'
p2900
(g163
g7
tp2901
sS'K39N'
p2902
(g669
g17
tp2903
sS'KLDM'
p2904
(g956
g137
tp2905
sS'KCTY'
p2906
(g13
g17
tp2907
sS'KUXL'
p2908
(g63
g7
tp2909
sS'KLDJ'
p2910
(g669
g17
tp2911
sS'KJHW'
p2912
(g13
g17
tp2913
sS'KJHN'
p2914
(g264
g7
tp2915
sS'XTUR'
p2916
(g66
g7
tp2917
sS'QBOI'
p2918
(g63
g7
tp2919
sS'KHHR'
p2920
(g298
g80
tp2921
sS'K1H2'
p2922
(g682
g7
tp2923
sS'PFSH'
p2924
(g2282
g102
tp2925
sS'K3D2'
p2926
(g2476
g137
tp2927
sS'KDLL'
p2928
(g38
g7
tp2929
sS'KDLN'
p2930
(g832
g236
tp2931
sS'KXMR'
p2932
(g229
g17
tp2933
sS'KDLH'
p2934
(g2
g7
tp2935
sS'K42J'
p2936
(g229
g17
tp2937
sS'KDLF'
p2938
(g66
g7
tp2939
sS'XPEL'
p2940
(g2
g7
tp2941
sS'K42V'
p2942
(g264
g7
tp2943
sS'KDLZ'
p2944
(g53
g17
tp2945
sS'KDLP'
p2946
(g496
g7
tp2947
sS'KDLS'
p2948
(g215
g80
tp2949
sS'KAFW'
p2950
(g142
g7
tp2951
sS'QBSI'
p2952
(g2
g7
tp2953
sS'KNTU'
p2954
(g310
g17
tp2955
sS'K3R7'
p2956
(g2
g7
tp2957
sS'KM54'
p2958
(g307
g7
tp2959
sS'KM52'
p2960
(g682
g7
tp2961
sS'XPVS'
p2962
(g264
g7
tp2963
sS'KT20'
p2964
(g142
g7
tp2965
sS'QAEI'
p2966
(g20
g7
tp2967
sS'KSVM'
p2968
(g245
g137
tp2969
sS'K20U'
p2970
(g949
g236
tp2971
sS'KQRC'
p2972
(g477
g32
tp2973
sS'KSVH'
p2974
(g71
g17
tp2975
sS'KAXN'
p2976
(g41
g7
tp2977
sS'KFLL'
p2978
(g71
g17
tp2979
sS'KOBI'
p2980
(g310
g17
tp2981
sS'QSDS'
p2982
(g10
g7
tp2983
sS'KOBE'
p2984
(g71
g17
tp2985
sS'K8V3'
p2986
(g142
g7
tp2987
sS'K08D'
p2988
(g212
g7
tp2989
sS'K4N1'
p2990
(g669
g17
tp2991
sS'XGGS'
p2992
(g264
g7
tp2993
sS'XFOD'
p2994
(g20
g7
tp2995
sS'XDO1'
p2996
(g66
g7
tp2997
sS'KX14'
p2998
(g13
g17
tp2999
sS'KMJX'
p3000
(g529
g17
tp3001
sS'KIEN'
p3002
(g1025
g236
tp3003
sS'KMJQ'
p3004
(g20
g7
tp3005
sS'KORL'
p3006
(g13
g17
tp3007
sS'QASM'
p3008
(g2
g7
tp3009
sS'KWK6'
p3010
(g10
g7
tp3011
sS'KMCN'
p3012
(g53
g17
tp3013
sS'KBBG'
p3014
(g63
g7
tp3015
sS'KTWM'
p3016
(g163
g7
tp3017
sS'KBBF'
p3018
(g1238
g1242
tp3019
sS'KMZZ'
p3020
(g395
g399
tp3021
sS'KTWF'
p3022
(g153
g95
tp3023
sS'K8D7'
p3024
(g142
g7
tp3025
sS'XMAN'
p3026
(g163
g7
tp3027
sS'KGUP'
p3028
(g810
g236
tp3029
sS'KGUS'
p3030
(g462
g399
tp3031
sS'KK82'
p3032
(g191
g7
tp3033
sS'K3M3'
p3034
(g390
g17
tp3035
sS'KIYA'
p3036
(g2
g7
tp3037
sS'KRWI'
p3038
(g120
g17
tp3039
sS'KD38'
p3040
(g120
g17
tp3041
sS'KD39'
p3042
(g20
g7
tp3043
sS'KIYK'
p3044
(g76
g80
tp3045
sS'KPGV'
p3046
(g120
g17
tp3047
sS'QMRS'
p3048
(g142
g7
tp3049
sS'KSSC'
p3050
(g71
g17
tp3051
sS'KGUC'
p3052
(g532
g236
tp3053
sS'KPGL'
p3054
(g307
g7
tp3055
sS'KRWV'
p3056
(g173
g7
tp3057
sS'KPGA'
p3058
(g383
g236
tp3059
sS'XMAR'
p3060
(g2
g7
tp3061
sS'KGUL'
p3062
(g41
g7
tp3063
sS'XMAQ'
p3064
(g203
g7
tp3065
sS'KTIF'
p3066
(g66
g7
tp3067
sS'KVGC'
p3068
(g415
g17
tp3069
sS'KIWA'
p3070
(g178
g50
tp3071
sS'KGGP'
p3072
(g462
g399
tp3073
sS'KMDH'
p3074
(g38
g7
tp3075
sS'KTIK'
p3076
(g142
g7
tp3077
sS'KMDJ'
p3078
(g496
g7
tp3079
sS'KMDT'
p3080
(g310
g17
tp3081
sS'KTIW'
p3082
(g106
g80
tp3083
sS'KNKT'
p3084
(g85
g17
tp3085
sS'KMDW'
p3086
(g496
g7
tp3087
sS'KMDQ'
p3088
(g307
g7
tp3089
sS'KTIP'
p3090
(g682
g7
tp3091
sS'KREG'
p3092
(g203
g7
tp3093
sS'KREI'
p3094
(g76
g80
tp3095
sS'KIWS'
p3096
(g41
g7
tp3097
sS'PAPB'
p3098
NsS'KREL'
p3099
(g10
g7
tp3100
sS'KTIX'
p3101
(g229
g17
tp3102
sS'KREO'
p3103
(g76
g80
tp3104
sS'KYKM'
p3105
(g364
g80
tp3106
sS'KYKN'
p3107
(g142
g7
tp3108
sS'KEWR'
p3109
(g669
g17
tp3110
sS'QMLI'
p3111
(g20
g7
tp3112
sS'KEWB'
p3113
(g489
g17
tp3114
sS'KEWN'
p3115
(g120
g17
tp3116
sS'KEWK'
p3117
(g142
g7
tp3118
sS'KPUW'
p3119
(g76
g80
tp3120
sS'KOFK'
p3121
(g142
g7
tp3122
sS'KC62'
p3123
(g395
g399
tp3124
sS'PAMY'
p3125
(VAmerica/Nome
p3126
g102
tp3127
sS'KRYN'
p3128
(g178
g50
tp3129
sS'PAMR'
p3130
(g514
g32
tp3131
sS'KRYT'
p3132
(g120
g17
tp3133
sS'XMOU'
p3134
(g163
g7
tp3135
sS'KRYV'
p3136
(g682
g7
tp3137
sS'KRYW'
p3138
(g142
g7
tp3139
sS'KPUB'
p3140
(g291
g236
tp3141
sS'PAMK'
p3142
(g2383
g102
tp3143
sS'PAMH'
p3144
(g1927
g32
tp3145
sS'K0R0'
p3146
(g38
g7
tp3147
sS'PAMD'
p3148
(g2884
g32
tp3149
sS'KPUM'
p3150
(g232
g236
tp3151
sS'KPUJ'
p3152
(g35
g17
tp3153
sS'KRYY'
p3154
(g35
g17
tp3155
sS'K6B0'
p3156
(g23
g17
tp3157
sS'KCCO'
p3158
(g35
g17
tp3159
sS'KUOX'
p3160
(g38
g7
tp3161
sS'K6B9'
p3162
(g310
g17
tp3163
sS'KCCA'
p3164
(g2
g7
tp3165
sS'KNAK'
p3166
(g85
g17
tp3167
sS'XGDS'
p3168
(g10
g7
tp3169
sS'KCCY'
p3170
(g2
g7
tp3171
sS'KLUA'
p3172
(g85
g17
tp3173
sS'KLUF'
p3174
(g46
g50
tp3175
sS'KLUG'
p3176
(g307
g7
tp3177
sS'KLUD'
p3178
(g142
g7
tp3179
sS'XIOW'
p3180
(g163
g7
tp3181
sS'KCCR'
p3182
(g106
g80
tp3183
sS'KORS'
p3184
(g106
g80
tp3185
sS'KCCU'
p3186
(g532
g236
tp3187
sS'KLUM'
p3188
(g163
g7
tp3189
sS'KHOX'
p3190
(g66
g7
tp3191
sS'KHOP'
p3192
(g496
g7
tp3193
sS'KCUT'
p3194
(g949
g236
tp3195
sS'KLHB'
p3196
(g173
g7
tp3197
sS'KHOT'
p3198
(g63
g7
tp3199
sS'KHOU'
p3200
(g41
g7
tp3201
sS'KCUL'
p3202
(g682
g7
tp3203
sS'KCUH'
p3204
(g173
g7
tp3205
sS'KEAU'
p3206
(g163
g7
tp3207
sS'KEAT'
p3208
(g364
g80
tp3209
sS'XTMI'
p3210
(g2
g7
tp3211
sS'KHOE'
p3212
(g229
g17
tp3213
sS'KCUB'
p3214
(g71
g17
tp3215
sS'XBY1'
p3216
(g212
g7
tp3217
sS'KFOK'
p3218
(g669
g17
tp3219
sS'KSBM'
p3220
(g38
g7
tp3221
sS'KFOA'
p3222
(g682
g7
tp3223
sS'KFOD'
p3224
(g20
g7
tp3225
sS'KFOE'
p3226
(g41
g7
tp3227
sS'KFOZ'
p3228
(g63
g7
tp3229
sS'KAYS'
p3230
(g229
g17
tp3231
sS'KFOT'
p3232
(g106
g80
tp3233
sS'KLCH'
p3234
(g63
g7
tp3235
sS'KLCI'
p3236
(g117
g17
tp3237
sS'KLCK'
p3238
(g229
g17
tp3239
sS'PMDY'
p3240
NsS'KN38'
p3241
(g120
g17
tp3242
sS'KUYF'
p3243
(g53
g17
tp3244
sS'KU42'
p3245
(g383
g236
tp3246
sS'KLCG'
p3247
(g173
g7
tp3248
sS'KJKJ'
p3249
(g173
g7
tp3250
sS'K9D1'
p3251
(g10
g7
tp3252
sS'KJKL'
p3253
(g53
g17
tp3254
sS'K9D7'
p3255
(g10
g7
tp3256
sS'KLCQ'
p3257
(g229
g17
tp3258
sS'KJKA'
p3259
(g220
g7
tp3260
sS'KDKK'
p3261
(g434
g17
tp3262
sS'XPFI'
p3263
(g2
g7
tp3264
sS'KY49'
p3265
(g20
g7
tp3266
sS'KDKB'
p3267
(g682
g7
tp3268
sS'KBCT'
p3269
(g71
g17
tp3270
sS'KZPH'
p3271
(g71
g17
tp3272
sS'KDKX'
p3273
(g53
g17
tp3274
sS'KBCK'
p3275
(g203
g7
tp3276
sS'KT35'
p3277
(g173
g7
tp3278
sS'XCFI'
p3279
(g63
g7
tp3280
sS'KDKR'
p3281
(g41
g7
tp3282
sS'KXLL'
p3283
(g415
g17
tp3284
sS'KBCE'
p3285
(g832
g236
tp3286
sS'KJYL'
p3287
(g13
g17
tp3288
sS'KJYM'
p3289
(g35
g17
tp3290
sS'XPTS'
p3291
(g264
g7
tp3292
sS'KFYE'
p3293
(g38
g7
tp3294
sS'KFYG'
p3295
(g203
g7
tp3296
sS'KW60'
p3297
(g163
g7
tp3298
sS'KAKO'
p3299
(g949
g236
tp3300
sS'KJYG'
p3301
(g20
g7
tp3302
sS'KAKH'
p3303
(g13
g17
tp3304
sS'KSOA'
p3305
(g66
g7
tp3306
sS'XCTI'
p3307
(g2
g7
tp3308
sS'KGTU'
p3309
(g142
g7
tp3310
sS'KAKQ'
p3311
(g310
g17
tp3312
sS'K77M'
p3313
(VAmerica/Boise
p3314
g95
tp3315
sS'KAKR'
p3316
(g13
g17
tp3317
sS'KSOW'
p3318
(g1981
g50
tp3319
sS'KJYR'
p3320
(g142
g7
tp3321
sS'KSOP'
p3322
(g434
g17
tp3323
sS'PACV'
p3324
(g124
g32
tp3325
sS'PACR'
p3326
(g2884
g32
tp3327
sS'KBQK'
p3328
(g434
g17
tp3329
sS'QRVI'
p3330
(g2
g7
tp3331
sS'PACZ'
p3332
NsS'PACD'
p3333
NsS'PACE'
p3334
(g2884
g32
tp3335
sS'KBQX'
p3336
(g142
g7
tp3337
sS'K0VG'
p3338
(g53
g17
tp3339
sS'PACM'
p3340
(VAmerica/Nome
p3341
g102
tp3342
sS'KBQP'
p3343
(g163
g7
tp3344
sS'KDAA'
p3345
(g120
g17
tp3346
sS'KDCA'
p3347
(g120
g17
tp3348
sS'KOCW'
p3349
(g120
g17
tp3350
sS'KCAO'
p3351
(g949
g236
tp3352
sS'XJEF'
p3353
(g20
g7
tp3354
sS'KOCR'
p3355
(VAmerica/Havana
p3356
g443
tp3357
sS'KOCQ'
p3358
(g496
g7
tp3359
sS'QSTI'
p3360
(g20
g7
tp3361
sS'KOCH'
p3362
(g20
g7
tp3363
sS'XADA'
p3364
(g20
g7
tp3365
sS'KOCF'
p3366
(g229
g17
tp3367
sS'QNEI'
p3368
(g63
g7
tp3369
sS'KL18'
p3370
(g76
g80
tp3371
sS'QHIM'
p3372
(g173
g7
tp3373
sS'KMKJ'
p3374
(g13
g17
tp3375
sS'QHII'
p3376
(g173
g7
tp3377
sS'KMKO'
p3378
(g41
g7
tp3379
sS'KMKN'
p3380
(g191
g7
tp3381
sS'KMKA'
p3382
(g191
g7
tp3383
sS'KMKC'
p3384
(g20
g7
tp3385
sS'KMKE'
p3386
(g38
g7
tp3387
sS'KIFP'
p3388
(g410
g50
tp3389
sS'KMKY'
p3390
(g13
g17
tp3391
sS'KMKS'
p3392
(g71
g17
tp3393
sS'QVTI'
p3394
(g63
g7
tp3395
sS'KMKT'
p3396
(g63
g7
tp3397
sS'KIFA'
p3398
(g63
g7
tp3399
sS'KMYR'
p3400
(g71
g17
tp3401
sS'KMYP'
p3402
(g532
g236
tp3403
sS'KMYV'
p3404
(g215
g80
tp3405
sS'KMYT'
p3406
(g163
g7
tp3407
sS'KMYZ'
p3408
(g173
g7
tp3409
sS'PAQH'
p3410
(g664
g32
tp3411
sS'K3S8'
p3412
(g166
g80
tp3413
sS'KMYF'
p3414
(g127
g80
tp3415
sS'PAQT'
p3416
(VAmerica/Anchorage
p3417
g32
tp3418
sS'KETH'
p3419
(g173
g7
tp3420
sS'KMYL'
p3421
(g1600
g95
tp3422
sS'KM63'
p3423
(g532
g236
tp3424
sS'K1II'
p3425
(g462
g399
tp3426
sS'KTHA'
p3427
(g307
g7
tp3428
sS'KRDR'
p3429
(g142
g7
tp3430
sS'KISN'
p3431
(g130
g7
tp3432
sS'KMEB'
p3433
(g434
g17
tp3434
sS'KRDU'
p3435
(g85
g17
tp3436
sS'PAEG'
p3437
(g2258
g32
tp3438
sS'KMEM'
p3439
(g38
g7
tp3440
sS'KUZA'
p3441
(g13
g17
tp3442
sS'KMEI'
p3443
(g682
g7
tp3444
sS'KMEH'
p3445
(g156
g80
tp3446
sS'KMEV'
p3447
(g486
g80
tp3448
sS'KRDG'
p3449
(g415
g17
tp3450
sS'KCXP'
p3451
(g486
g80
tp3452
sS'KRDD'
p3453
(g106
g80
tp3454
sS'KRDK'
p3455
(g41
g7
tp3456
sS'QESS'
p3457
(g142
g7
tp3458
sS'K2A0'
p3459
(g35
g17
tp3460
sS'KMEZ'
p3461
(g20
g7
tp3462
sS'KRDM'
p3463
(g215
g80
tp3464
sS'KGDB'
p3465
(g41
g7
tp3466
sS'KCXO'
p3467
(g41
g7
tp3468
sS'KWHP'
p3469
(g156
g80
tp3470
sS'K4M9'
p3471
(g203
g7
tp3472
sS'KGDJ'
p3473
(g142
g7
tp3474
sS'KGDV'
p3475
(g291
g236
tp3476
sS'QMMS'
p3477
(g142
g7
tp3478
sS'QDSS'
p3479
(g949
g236
tp3480
sS'KGDP'
p3481
(g188
g7
tp3482
sS'KEPH'
p3483
(g486
g80
tp3484
sS'KEPM'
p3485
(VAmerica/Moncton
p3486
g583
tp3487
sS'K4MR'
p3488
(g949
g236
tp3489
sS'K4MY'
p3490
(g232
g236
tp3491
sS'QBRI'
p3492
(g2
g7
tp3493
sS'KJVL'
p3494
(g38
g7
tp3495
sS'KEHY'
p3496
(g532
g236
tp3497
sS'QBRS'
p3498
(g173
g7
tp3499
sS'KLMT'
p3500
(g215
g80
tp3501
sS'KAFO'
p3502
(g286
g236
tp3503
sS'K18A'
p3504
(g53
g17
tp3505
sS'QNSI'
p3506
(g2
g7
tp3507
sS'KD25'
p3508
(VAmerica/Detroit
p3509
g137
tp3510
sS'QGRI'
p3511
(g63
g7
tp3512
sS'QABS'
p3513
(g191
g7
tp3514
sS'KCLS'
p3515
(g106
g80
tp3516
sS'KCRX'
p3517
(g682
g7
tp3518
sS'KHNZ'
p3519
(g85
g17
tp3520
sS'KCRP'
p3521
(g142
g7
tp3522
sS'KCRQ'
p3523
(g76
g80
tp3524
sS'KCRS'
p3525
(g173
g7
tp3526
sS'KCRV'
p3527
(g232
g236
tp3528
sS'KEBA'
p3529
(g229
g17
tp3530
sS'KCRH'
p3531
(g163
g7
tp3532
sS'KNVD'
p3533
(g20
g7
tp3534
sS'K3B6'
p3535
(g63
g7
tp3536
sS'KHNB'
p3537
(VAmerica/Indiana/Tell_City
p3538
g3
(S'America/Indiana/Tell_City'
p3539
I-20820
I0
S'LMT'
p3540
tp3541
Rp3542
tp3543
sS'KEBS'
p3544
(g63
g7
tp3545
sS'KCRG'
p3546
(g53
g17
tp3547
sS'KFNT'
p3548
(g245
g137
tp3549
sS'KAZO'
p3550
(g376
g137
tp3551
sS'KDZB'
p3552
(g191
g7
tp3553
sS'KAZC'
p3554
(VAmerica/Phoenix
p3555
g50
tp3556
sS'KAZE'
p3557
(g229
g17
tp3558
sS'K6S5'
p3559
(g815
g80
tp3560
sS'K6S2'
p3561
(g106
g80
tp3562
sS'KAFJ'
p3563
(g71
g17
tp3564
sS'KFNB'
p3565
(g41
g7
tp3566
sS'KFNL'
p3567
(g232
g236
tp3568
sS'K96D'
p3569
(g142
g7
tp3570
sS'K6S8'
p3571
(g810
g236
tp3572
sS'KC75'
p3573
(g38
g7
tp3574
sS'KC73'
p3575
(g38
g7
tp3576
sS'KTVY'
p3577
(g832
g236
tp3578
sS'KTVR'
p3579
(g163
g7
tp3580
sS'KEMK'
p3581
(g173
g7
tp3582
sS'KTVL'
p3583
(g486
g80
tp3584
sS'KTVK'
p3585
(g2
g7
tp3586
sS'KTVI'
p3587
(g53
g17
tp3588
sS'KTVF'
p3589
(g173
g7
tp3590
sS'K0CO'
p3591
(g232
g236
tp3592
sS'KTVC'
p3593
(g376
g137
tp3594
sS'XGU1'
p3595
(g188
g7
tp3596
sS'XFLS'
p3597
(g264
g7
tp3598
sS'KIZA'
p3599
(g156
g80
tp3600
sS'KIZG'
p3601
(g489
g17
tp3602
sS'K14Y'
p3603
(g20
g7
tp3604
sS'KLSF'
p3605
(g35
g17
tp3606
sS'QMSS'
p3607
(g66
g7
tp3608
sS'KGZS'
p3609
(g496
g7
tp3610
sS'KGZL'
p3611
(g41
g7
tp3612
sS'QMSM'
p3613
(g173
g7
tp3614
sS'KGZH'
p3615
(g496
g7
tp3616
sS'QMSI'
p3617
(g20
g7
tp3618
sS'KRVS'
p3619
(g41
g7
tp3620
sS'KJXN'
p3621
(g133
g137
tp3622
sS'KSLH'
p3623
(g133
g137
tp3624
sS'KSLI'
p3625
(g298
g80
tp3626
sS'KSLN'
p3627
(g142
g7
tp3628
sS'KSLO'
p3629
(g682
g7
tp3630
sS'KFXE'
p3631
(g71
g17
tp3632
sS'KSLB'
p3633
(g41
g7
tp3634
sS'KALI'
p3635
(g191
g7
tp3636
sS'KAQR'
p3637
(g173
g7
tp3638
sS'KALK'
p3639
(g2416
g50
tp3640
sS'KSLG'
p3641
(g20
g7
tp3642
sS'KALN'
p3643
(g203
g7
tp3644
sS'KSLE'
p3645
(g106
g80
tp3646
sS'K98D'
p3647
(g1419
g236
tp3648
sS'KALS'
p3649
(g232
g236
tp3650
sS'KEL0'
p3651
(g949
g236
tp3652
sS'KALW'
p3653
(g156
g80
tp3654
sS'KALX'
p3655
(g220
g7
tp3656
sS'KFXY'
p3657
(g63
g7
tp3658
sS'XKN1'
p3659
(g10
g7
tp3660
sS'PABV'
p3661
(g514
g32
tp3662
sS'PABT'
p3663
(g526
g32
tp3664
sS'KBPK'
p3665
(g2
g7
tp3666
sS'PABR'
p3667
(g477
g32
tp3668
sS'KBPI'
p3669
(g286
g236
tp3670
sS'K9S2'
p3671
(g232
g236
tp3672
sS'KBPG'
p3673
(g264
g7
tp3674
sS'KBPC'
p3675
(g264
g7
tp3676
sS'KJQF'
p3677
(g71
g17
tp3678
sS'K74V'
p3679
(g286
g236
tp3680
sS'PABE'
p3681
(g664
g32
tp3682
sS'PABA'
p3683
(g1034
g32
tp3684
sS'PABN'
p3685
(VAmerica/Anchorage
p3686
g32
tp3687
sS'PABL'
p3688
(g664
g32
tp3689
sS'PABI'
p3690
(g1034
g32
tp3691
sS'QFMM'
p3692
(g2
g7
tp3693
sS'KRXE'
p3694
(g1169
g95
tp3695
sS'KCHO'
p3696
(g85
g17
tp3697
sS'KPTT'
p3698
(g191
g7
tp3699
sS'KPTW'
p3700
(g415
g17
tp3701
sS'KPTV'
p3702
(g486
g80
tp3703
sS'PALP'
p3704
(g3417
g32
tp3705
sS'KN23'
p3706
(g415
g17
tp3707
sS'PALR'
p3708
(g1071
g32
tp3709
sS'PALU'
p3710
NsS'KN27'
p3711
(g310
g17
tp3712
sS'PALV'
p3713
(g114
g32
tp3714
sS'PALH'
p3715
(g514
g32
tp3716
sS'PALK'
p3717
(g3686
g32
tp3718
sS'PALJ'
p3719
(g114
g32
tp3720
sS'XMNS'
p3721
(g212
g7
tp3722
sS'KPTD'
p3723
(g669
g17
tp3724
sS'KACT'
p3725
(g142
g7
tp3726
sS'KPTK'
p3727
(g245
g137
tp3728
sS'PALG'
p3729
(g88
g32
tp3730
sS'KPTN'
p3731
(g163
g7
tp3732
sS'KELD'
p3733
(g2
g7
tp3734
sS'KY51'
p3735
(g203
g7
tp3736
sS'KY50'
p3737
(g38
g7
tp3738
sS'KELA'
p3739
(g173
g7
tp3740
sS'KELM'
p3741
(g310
g17
tp3742
sS'KELN'
p3743
(g364
g80
tp3744
sS'KELO'
p3745
(g163
g7
tp3746
sS'KLTS'
p3747
(g10
g7
tp3748
sS'KELK'
p3749
(g10
g7
tp3750
sS'PHSF'
p3751
(g56
g60
tp3752
sS'KELP'
p3753
(g1130
g1065
tp3754
sS'KAL8'
p3755
(g66
g7
tp3756
sS'KSL0'
p3757
(g949
g236
tp3758
sS'KELY'
p3759
(g815
g80
tp3760
sS'KELZ'
p3761
(g120
g17
tp3762
sS'PAPM'
p3763
(g664
g32
tp3764
sS'KBBD'
p3765
(g10
g7
tp3766
sS'PAPO'
p3767
(g2383
g102
tp3768
sS'XSMS'
p3769
(g212
g7
tp3770
sS'KORH'
p3771
(g117
g17
tp3772
sS'PAPH'
p3773
(g111
g32
tp3774
sS'KBBB'
p3775
(g41
g7
tp3776
sS'KORD'
p3777
(g496
g7
tp3778
sS'KORE'
p3779
(g529
g17
tp3780
sS'KORF'
p3781
(g310
g17
tp3782
sS'KORG'
p3783
(g63
g7
tp3784
sS'KO18'
p3785
(g486
g80
tp3786
sS'KORB'
p3787
(g2
g7
tp3788
sS'KORC'
p3789
(g173
g7
tp3790
sS'KBBW'
p3791
(g10
g7
tp3792
sS'KBBP'
p3793
(g434
g17
tp3794
sS'KMZH'
p3795
(g2
g7
tp3796
sS'KVKY'
p3797
(g307
g7
tp3798
sS'XPG1'
p3799
(g130
g7
tp3800
sS'KN07'
p3801
(g669
g17
tp3802
sS'KRGK'
p3803
(g2
g7
tp3804
sS'KVKS'
p3805
(g203
g7
tp3806
sS'PAPR'
p3807
(g3417
g32
tp3808
sS'KAQP'
p3809
(g41
g7
tp3810
sS'QWES'
p3811
(g142
g7
tp3812
sS'KLBO'
p3813
(g2
g7
tp3814
sS'KLBL'
p3815
(g66
g7
tp3816
sS'KLBB'
p3817
(g264
g7
tp3818
sS'KLBF'
p3819
(g66
g7
tp3820
sS'KLBE'
p3821
(g434
g17
tp3822
sS'KLBX'
p3823
(g41
g7
tp3824
sS'KS71'
p3825
(g373
g236
tp3826
sS'QBMI'
p3827
(g2
g7
tp3828
sS'KLBR'
p3829
(g41
g7
tp3830
sS'K1J0'
p3831
(g220
g7
tp3832
sS'KAQX'
p3833
(g13
g17
tp3834
sS'KLBT'
p3835
(g434
g17
tp3836
sS'XJTS'
p3837
(g66
g7
tp3838
sS'QEGI'
p3839
(g63
g7
tp3840
sS'K40J'
p3841
(g53
g17
tp3842
sS'K40B'
p3843
(g1531
g17
tp3844
sS'KSZL'
p3845
(g63
g7
tp3846
sS'K40G'
p3847
(g46
g50
tp3848
sS'KGZN'
p3849
(g10
g7
tp3850
sS'KXCN'
p3851
NsS'KSZT'
p3852
(g298
g80
tp3853
sS'K5R8'
p3854
(g63
g7
tp3855
sS'XCID'
p3856
(g163
g7
tp3857
sS'KSZY'
p3858
(g682
g7
tp3859
sS'KP88'
p3860
(g695
g95
tp3861
sS'KQBL'
p3862
(g35
g17
tp3863
sS'KDFW'
p3864
(g142
g7
tp3865
sS'KCMS'
p3866
(g373
g236
tp3867
sS'K19S'
p3868
(g66
g7
tp3869
sS'KHLD'
p3870
(g493
g236
tp3871
sS'KEMP'
p3872
(g173
g7
tp3873
sS'KBMC'
p3874
(g832
g236
tp3875
sS'KM75'
p3876
(g493
g236
tp3877
sS'KCMY'
p3878
(g203
g7
tp3879
sS'KHLG'
p3880
(g71
g17
tp3881
sS'KASX'
p3882
(g203
g7
tp3883
sS'KQT8'
p3884
(g203
g7
tp3885
sS'KQT9'
p3886
NsS'QGAS'
p3887
(g173
g7
tp3888
sS'KUNR'
p3889
(g949
g236
tp3890
sS'XAI1'
p3891
(g264
g7
tp3892
sS'KADH'
p3893
(g173
g7
tp3894
sS'KNXP'
p3895
(g298
g80
tp3896
sS'QSUI'
p3897
(g2
g7
tp3898
sS'KTFP'
p3899
(g2268
g1242
tp3900
sS'KLVS'
p3901
(g232
g236
tp3902
sS'KIGX'
p3903
(g434
g17
tp3904
sS'KMTV'
p3905
(g71
g17
tp3906
sS'KMTW'
p3907
(g496
g7
tp3908
sS'KMTP'
p3909
(g117
g17
tp3910
sS'KMTR'
p3911
(g810
g236
tp3912
sS'KIGQ'
p3913
(g496
g7
tp3914
sS'KCSG'
p3915
(g35
g17
tp3916
sS'KIGM'
p3917
(g3555
g50
tp3918
sS'KVER'
p3919
(g2
g7
tp3920
sS'KMTC'
p3921
(VAmerica/Toronto
p3922
g3
(S'America/Toronto'
p3923
I-19080
I0
S'LMT'
p3924
tp3925
Rp3926
tp3927
sS'KMTN'
p3928
(g310
g17
tp3929
sS'KMTO'
p3930
(g682
g7
tp3931
sS'KMTH'
p3932
(g439
g443
tp3933
sS'KMTJ'
p3934
(g493
g236
tp3935
sS'KCVB'
p3936
(g191
g7
tp3937
sS'KTUS'
p3938
(g2416
g50
tp3939
sS'KTUP'
p3940
(g682
g7
tp3941
sS'KHJO'
p3942
(g486
g80
tp3943
sS'KI68'
p3944
(g35
g17
tp3945
sS'KI69'
p3946
(g35
g17
tp3947
sS'KI67'
p3948
(g35
g17
tp3949
sS'KI63'
p3950
(g203
g7
tp3951
sS'KRIV'
p3952
(g76
g80
tp3953
sS'KUBE'
p3954
(g163
g7
tp3955
sS'KK68'
p3956
(g41
g7
tp3957
sS'KK62'
p3958
(g35
g17
tp3959
sS'KRID'
p3960
(g35
g17
tp3961
sS'KSLK'
p3962
(g669
g17
tp3963
sS'KRIC'
p3964
(g120
g17
tp3965
sS'KRIL'
p3966
(g493
g236
tp3967
sS'KRIM'
p3968
(g286
g236
tp3969
sS'KGSO'
p3970
(g434
g17
tp3971
sS'KMFD'
p3972
(g229
g17
tp3973
sS'KMFE'
p3974
(g191
g7
tp3975
sS'KMFI'
p3976
(g203
g7
tp3977
sS'KIIY'
p3978
(g229
g17
tp3979
sS'KMFR'
p3980
(g106
g80
tp3981
sS'KMFV'
p3982
(g120
g17
tp3983
sS'KIIB'
p3984
(g163
g7
tp3985
sS'QCKI'
p3986
(g63
g7
tp3987
sS'KMDZ'
p3988
(g203
g7
tp3989
sS'KLVL'
p3990
(g120
g17
tp3991
sS'KGED'
p3992
(g415
g17
tp3993
sS'KGEG'
p3994
(g76
g80
tp3995
sS'QDRI'
p3996
(g63
g7
tp3997
sS'KLUK'
p3998
(g35
g17
tp3999
sS'KEQY'
p4000
(g71
g17
tp4001
sS'KAJG'
p4002
(g496
g7
tp4003
sS'KROX'
p4004
(g41
g7
tp4005
sS'KEQA'
p4006
(g173
g7
tp4007
sS'KFSD'
p4008
(g173
g7
tp4009
sS'KGEU'
p4010
(g46
g50
tp4011
sS'KGEV'
p4012
(g13
g17
tp4013
sS'KGEY'
p4014
(g810
g236
tp4015
sS'KGEZ'
p4016
(g395
g399
tp4017
sS'KPUC'
p4018
(g286
g236
tp4019
sS'KMSV'
p4020
(g669
g17
tp4021
sS'XBWS'
p4022
(g212
g7
tp4023
sS'KAVK'
p4024
(g191
g7
tp4025
sS'KVIC'
p4026
(g173
g7
tp4027
sS'KCAR'
p4028
(g315
g17
tp4029
sS'KCAV'
p4030
(g63
g7
tp4031
sS'KHST'
p4032
(g229
g17
tp4033
sS'KHSV'
p4034
(g307
g7
tp4035
sS'K6L4'
p4036
(g13
g17
tp4037
sS'KHSP'
p4038
(g434
g17
tp4039
sS'KLSV'
p4040
(g127
g80
tp4041
sS'KNCA'
p4042
(g434
g17
tp4043
sS'XBI1'
p4044
(g264
g7
tp4045
sS'KEMV'
p4046
(g120
g17
tp4047
sS'KCAC'
p4048
(g271
g236
tp4049
sS'KEMT'
p4050
(g156
g80
tp4051
sS'KCAE'
p4052
(g13
g17
tp4053
sS'KUIN'
p4054
(g163
g7
tp4055
sS'KCAG'
p4056
(g493
g236
tp4057
sS'KUIL'
p4058
(g196
g80
tp4059
sS'KHSE'
p4060
(g120
g17
tp4061
sS'KLSB'
p4062
(g810
g236
tp4063
sS'KHSG'
p4064
(g810
g236
tp4065
sS'KHSA'
p4066
(g496
g7
tp4067
sS'KHSB'
p4068
(g682
g7
tp4069
sS'PHTO'
p4070
(g56
g60
tp4071
sS'KPEA'
p4072
(g2
g7
tp4073
sS'KNQX'
p4074
(g439
g443
tp4075
sS'KPEO'
p4076
(g120
g17
tp4077
sS'KCSQ'
p4078
(g20
g7
tp4079
sS'KHQM'
p4080
(g166
g80
tp4081
sS'KCSV'
p4082
(g220
g7
tp4083
sS'KECG'
p4084
(g310
g17
tp4085
sS'KJCA'
p4086
(g53
g17
tp4087
sS'KNQA'
p4088
(g38
g7
tp4089
sS'KCSM'
p4090
(g10
g7
tp4091
sS'KPEQ'
p4092
(g130
g7
tp4093
sS'KNQI'
p4094
(g142
g7
tp4095
sS'KECS'
p4096
(g291
g236
tp4097
sS'KPEZ'
p4098
(g191
g7
tp4099
sS'KPEX'
p4100
(g20
g7
tp4101
sS'KFIR'
p4102
(g286
g236
tp4103
sS'KFIT'
p4104
(g117
g17
tp4105
sS'KHMN'
p4106
(g532
g236
tp4107
sS'KVEL'
p4108
(g373
g236
tp4109
sS'K97M'
p4110
(g291
g236
tp4111
sS'KAVX'
p4112
(g298
g80
tp4113
sS'KHMP'
p4114
(g35
g17
tp4115
sS'KFIG'
p4116
(g85
g17
tp4117
sS'KHMZ'
p4118
(g85
g17
tp4119
sS'KFIN'
p4120
(g13
g17
tp4121
sS'KHMY'
p4122
(g142
g7
tp4123
sS'KLAW'
p4124
(g191
g7
tp4125
sS'KU68'
p4126
(g810
g236
tp4127
sS'KLAR'
p4128
(g232
g236
tp4129
sS'KLAS'
p4130
(g127
g80
tp4131
sS'KNMM'
p4132
(g682
g7
tp4133
sS'XCR1'
p4134
(g10
g7
tp4135
sS'KLAX'
p4136
(g298
g80
tp4137
sS'KLAF'
p4138
(g462
g399
tp4139
sS'KIER'
p4140
(g63
g7
tp4141
sS'QBLM'
p4142
(g63
g7
tp4143
sS'KLAA'
p4144
(g1025
g236
tp4145
sS'KLAN'
p4146
(g133
g137
tp4147
sS'KLAL'
p4148
(g229
g17
tp4149
sS'KLAM'
p4150
(g532
g236
tp4151
sS'K9F2'
p4152
(g203
g7
tp4153
sS'KSDF'
p4154
(g390
g17
tp4155
sS'KFUL'
p4156
(g76
g80
tp4157
sS'KGYB'
p4158
(g173
g7
tp4159
sS'KY63'
p4160
(g41
g7
tp4161
sS'KXBP'
p4162
(g142
g7
tp4163
sS'KJMR'
p4164
(g63
g7
tp4165
sS'KJMS'
p4166
(g191
g7
tp4167
sS'KDIJ'
p4168
(g1169
g95
tp4169
sS'KDIK'
p4170
(g1025
g236
tp4171
sS'QWTS'
p4172
(g142
g7
tp4173
sS'KAMA'
p4174
(g264
g7
tp4175
sS'KAMG'
p4176
(g229
g17
tp4177
sS'KSMP'
p4178
(g215
g80
tp4179
sS'KSMS'
p4180
(g71
g17
tp4181
sS'KO69'
p4182
(g106
g80
tp4183
sS'KVES'
p4184
(g35
g17
tp4185
sS'XJU1'
p4186
(g10
g7
tp4187
sS'KAMN'
p4188
(g133
g137
tp4189
sS'XCH1'
p4190
(g66
g7
tp4191
sS'KSME'
p4192
(g35
g17
tp4193
sS'KALB'
p4194
(g23
g17
tp4195
sS'KSMF'
p4196
(g215
g80
tp4197
sS'KAMW'
p4198
(g63
g7
tp4199
sS'KSMO'
p4200
(g156
g80
tp4201
sS'KSMN'
p4202
(g1711
g236
tp4203
sS'XWBG'
p4204
(g2
g7
tp4205
sS'PAAP'
p4206
(VAmerica/Vancouver
p4207
g523
tp4208
sS'PAAQ'
p4209
(g514
g32
tp4210
sS'KOEO'
p4211
(g2
g7
tp4212
sS'QHHS'
p4213
(g142
g7
tp4214
sS'PAPN'
p4215
(g1068
g32
tp4216
sS'PAAD'
p4217
(g1071
g32
tp4218
sS'PAAK'
p4219
(VAmerica/Adak
p4220
g3
(S'America/Adak'
p4221
I-42420
I0
S'LMT'
p4222
tp4223
Rp4224
tp4225
sS'QDNI'
p4226
(g41
g7
tp4227
sS'K1K1'
p4228
(g142
g7
tp4229
sS'KADG'
p4230
(g35
g17
tp4231
sS'K25T'
p4232
NsS'K21D'
p4233
(g2
g7
tp4234
sS'KVDF'
p4235
(g229
g17
tp4236
sS'KMUT'
p4237
(g163
g7
tp4238
sS'KMQJ'
p4239
(g395
g399
tp4240
sS'KUNV'
p4241
(g120
g17
tp4242
sS'KVDI'
p4243
(g229
g17
tp4244
sS'KOAJ'
p4245
(g434
g17
tp4246
sS'KVDW'
p4247
(g232
g236
tp4248
sS'KW43'
p4249
(g291
g236
tp4250
sS'KMUO'
p4251
(VAmerica/Boise
p4252
g95
tp4253
sS'KBKV'
p4254
(g229
g17
tp4255
sS'KMUL'
p4256
(g53
g17
tp4257
sS'KMUI'
p4258
(g310
g17
tp4259
sS'XSLS'
p4260
(g264
g7
tp4261
sS'KBEA'
p4262
(g142
g7
tp4263
sS'KBEC'
p4264
(g142
g7
tp4265
sS'KBED'
p4266
(g117
g17
tp4267
sS'PAWM'
p4268
(g3341
g102
tp4269
sS'PAWN'
p4270
(g98
g102
tp4271
sS'KOSH'
p4272
(g682
g7
tp4273
sS'KBEH'
p4274
(g682
g7
tp4275
sS'KOSC'
p4276
(g376
g137
tp4277
sS'KOSA'
p4278
(g20
g7
tp4279
sS'PAWG'
p4280
(g1918
g1922
tp4281
sS'KGXY'
p4282
(g291
g236
tp4283
sS'KHCO'
p4284
(g173
g7
tp4285
sS'K3CL'
p4286
(g106
g80
tp4287
sS'PAWR'
p4288
(g1071
g32
tp4289
sS'PAWS'
p4290
(g514
g32
tp4291
sS'KBKX'
p4292
(g173
g7
tp4293
sS'KM08'
p4294
(g38
g7
tp4295
sS'KPNC'
p4296
(g142
g7
tp4297
sS'KJYO'
p4298
(g120
g17
tp4299
sS'PPIZ'
p4300
(g98
g102
tp4301
sS'KM01'
p4302
(g203
g7
tp4303
sS'PHHN'
p4304
NsS'PPIT'
p4305
(g98
g102
tp4306
sS'KM04'
p4307
(g38
g7
tp4308
sS'PHHI'
p4309
NsS'KMCD'
p4310
(g133
g137
tp4311
sS'K9V6'
p4312
(g271
g236
tp4313
sS'KFSI'
p4314
(g191
g7
tp4315
sS'KRNT'
p4316
(g106
g80
tp4317
sS'KMGM'
p4318
(g307
g7
tp4319
sS'XSPE'
p4320
(g41
g7
tp4321
sS'KMGN'
p4322
(g133
g137
tp4323
sS'KTUL'
p4324
(g41
g7
tp4325
sS'KMGJ'
p4326
(g669
g17
tp4327
sS'KMGE'
p4328
(g35
g17
tp4329
sS'KCQM'
p4330
(g2
g7
tp4331
sS'KIJX'
p4332
(g203
g7
tp4333
sS'KRNV'
p4334
(g203
g7
tp4335
sS'KMGC'
p4336
(VAmerica/Indiana/Knox
p4337
g3
(S'America/Indiana/Knox'
p4338
I-20760
I0
S'LMT'
p4339
tp4340
Rp4341
tp4342
sS'KRFI'
p4343
(g20
g7
tp4344
sS'K2C8'
p4345
(g142
g7
tp4346
sS'KMGY'
p4347
(g35
g17
tp4348
sS'XSPR'
p4349
(g66
g7
tp4350
sS'KIJD'
p4351
(g529
g17
tp4352
sS'K2C2'
p4353
(g532
g236
tp4354
sS'KMGW'
p4355
(g434
g17
tp4356
sS'KPBX'
p4357
(g229
g17
tp4358
sS'KRFD'
p4359
(g38
g7
tp4360
sS'KMGR'
p4361
(g53
g17
tp4362
sS'KEBG'
p4363
(VAmerica/Matamoros
p4364
g3
(S'America/Matamoros'
p4365
I-24000
I0
S'LMT'
p4366
tp4367
Rp4368
tp4369
sS'KGVX'
p4370
(g2
g7
tp4371
sS'KERY'
p4372
(g376
g137
tp4373
sS'KERV'
p4374
(g10
g7
tp4375
sS'KYNG'
p4376
(g71
g17
tp4377
sS'KNFE'
p4378
(g310
g17
tp4379
sS'KERI'
p4380
(g229
g17
tp4381
sS'KGJT'
p4382
(g810
g236
tp4383
sS'KOWX'
p4384
(g53
g17
tp4385
sS'PAPG'
p4386
(g1918
g1922
tp4387
sS'KRIW'
p4388
(g810
g236
tp4389
sS'KEFC'
p4390
(g949
g236
tp4391
sS'KI75'
p4392
(g63
g7
tp4393
sS'KK78'
p4394
(g142
g7
tp4395
sS'KD07'
p4396
(g1025
g236
tp4397
sS'KBYG'
p4398
(g532
g236
tp4399
sS'KEFD'
p4400
(g41
g7
tp4401
sS'KGVW'
p4402
(g20
g7
tp4403
sS'QGLI'
p4404
(g20
g7
tp4405
sS'KPDC'
p4406
(g163
g7
tp4407
sS'XBFI'
p4408
(g20
g7
tp4409
sS'KPDK'
p4410
(g35
g17
tp4411
sS'XHO1'
p4412
(g949
g236
tp4413
sS'KNPA'
p4414
(g220
g7
tp4415
sS'KPDT'
p4416
(g156
g80
tp4417
sS'KPDX'
p4418
(g106
g80
tp4419
sS'KALM'
p4420
(g232
g236
tp4421
sS'KVVG'
p4422
(g13
g17
tp4423
sS'KFHR'
p4424
(VAmerica/Vancouver
p4425
g523
tp4426
sS'KHLC'
p4427
(g10
g7
tp4428
sS'KCPC'
p4429
(g85
g17
tp4430
sS'KFHU'
p4431
(g2416
g50
tp4432
sS'K0A8'
p4433
(g496
g7
tp4434
sS'K0A9'
p4435
(g229
g17
tp4436
sS'KCPK'
p4437
(g310
g17
tp4438
sS'KHLN'
p4439
(g383
g236
tp4440
sS'KFHB'
p4441
(g53
g17
tp4442
sS'KCPT'
p4443
(g142
g7
tp4444
sS'KHLR'
p4445
(g142
g7
tp4446
sS'KCPR'
p4447
(g532
g236
tp4448
sS'KCPS'
p4449
(g203
g7
tp4450
sS'KUUV'
p4451
(g163
g7
tp4452
sS'KHLX'
p4453
(g71
g17
tp4454
sS'PAPC'
p4455
(g2383
g102
tp4456
sS'KEZS'
p4457
(g682
g7
tp4458
sS'KC56'
p4459
(g496
g7
tp4460
sS'KALO'
p4461
(g2
g7
tp4462
sS'KRHV'
p4463
(g215
g80
tp4464
sS'KTTF'
p4465
(g53
g17
tp4466
sS'KTTA'
p4467
(g434
g17
tp4468
sS'KSLR'
p4469
(g41
g7
tp4470
sS'KRHP'
p4471
(g53
g17
tp4472
sS'K8S0'
p4473
(g1711
g236
tp4474
sS'KTTN'
p4475
(g669
g17
tp4476
sS'KSIY'
p4477
(g106
g80
tp4478
sS'KTTS'
p4479
(g229
g17
tp4480
sS'KGXA'
p4481
(g76
g80
tp4482
sS'KGXF'
p4483
(g46
g50
tp4484
sS'KRHI'
p4485
(g38
g7
tp4486
sS'KSJS'
p4487
(g229
g17
tp4488
sS'KSJT'
p4489
(g66
g7
tp4490
sS'KANK'
p4491
(g532
g236
tp4492
sS'KSJX'
p4493
(VAmerica/Toronto
p4494
g3926
tp4495
sS'KAND'
p4496
(g229
g17
tp4497
sS'KANE'
p4498
(g63
g7
tp4499
sS'KANB'
p4500
(g220
g7
tp4501
sS'KFZG'
p4502
(g53
g17
tp4503
sS'KFZY'
p4504
(g310
g17
tp4505
sS'KDZJ'
p4506
(g53
g17
tp4507
sS'KSJC'
p4508
(g215
g80
tp4509
sS'KCZG'
p4510
(g310
g17
tp4511
sS'KANW'
p4512
(g10
g7
tp4513
sS'QKGS'
p4514
(g173
g7
tp4515
sS'KJZI'
p4516
(g13
g17
tp4517
sS'KSJN'
p4518
(g1981
g50
tp4519
sS'KANQ'
p4520
(g395
g399
tp4521
sS'KXSA'
p4522
(g310
g17
tp4523
sS'KBRD'
p4524
(g20
g7
tp4525
sS'KBRA'
p4526
(g173
g7
tp4527
sS'KBRL'
p4528
(g163
g7
tp4529
sS'KBRO'
p4530
(VAmerica/Monterrey
p4531
g1242
tp4532
sS'KLNK'
p4533
(g173
g7
tp4534
sS'KRZL'
p4535
(g590
g399
tp4536
sS'KRZN'
p4537
(g2
g7
tp4538
sS'KFWC'
p4539
(g682
g7
tp4540
sS'K4SL'
p4541
(g493
g236
tp4542
sS'K5B2'
p4543
(g23
g17
tp4544
sS'KPZQ'
p4545
(g245
g137
tp4546
sS'K7W4'
p4547
(g120
g17
tp4548
sS'KTYR'
p4549
(g41
g7
tp4550
sS'KRZZ'
p4551
(g120
g17
tp4552
sS'KRZT'
p4553
(g53
g17
tp4554
sS'X3RF'
p4555
(g10
g7
tp4556
sS'KRZR'
p4557
(g35
g17
tp4558
sS'KLRY'
p4559
(g20
g7
tp4560
sS'KCNY'
p4561
(g373
g236
tp4562
sS'KEND'
p4563
(g142
g7
tp4564
sS'KHRX'
p4565
(g212
g7
tp4566
sS'KCNU'
p4567
(g41
g7
tp4568
sS'KNBC'
p4569
(g229
g17
tp4570
sS'KCNW'
p4571
(g142
g7
tp4572
sS'KNBE'
p4573
(g173
g7
tp4574
sS'KACP'
p4575
(g2
g7
tp4576
sS'KNBG'
p4577
(g203
g7
tp4578
sS'KHRO'
p4579
(g63
g7
tp4580
sS'KLRJ'
p4581
(g173
g7
tp4582
sS'KCNO'
p4583
(g76
g80
tp4584
sS'KLRO'
p4585
(g13
g17
tp4586
sS'KCNI'
p4587
(g35
g17
tp4588
sS'KHRI'
p4589
(g486
g80
tp4590
sS'KCNK'
p4591
(g142
g7
tp4592
sS'KHRD'
p4593
(g10
g7
tp4594
sS'KLRF'
p4595
(g2
g7
tp4596
sS'KCNB'
p4597
(g173
g7
tp4598
sS'KCNC'
p4599
(g63
g7
tp4600
sS'KOPN'
p4601
(g35
g17
tp4602
sS'KOPL'
p4603
(g2
g7
tp4604
sS'PAVL'
p4605
(g3126
g102
tp4606
sS'PAVC'
p4607
(g98
g102
tp4608
sS'PAVA'
p4609
(g3341
g102
tp4610
sS'KBDH'
p4611
(g41
g7
tp4612
sS'KOPF'
p4613
(g229
g17
tp4614
sS'KBDN'
p4615
(g215
g80
tp4616
sS'KBDL'
p4617
(g529
g17
tp4618
sS'KBDR'
p4619
(g23
g17
tp4620
sS'KBDU'
p4621
(g232
g236
tp4622
sS'KOKC'
p4623
(g142
g7
tp4624
sS'KVUO'
p4625
(g106
g80
tp4626
sS'PAVW'
p4627
(g2131
g32
tp4628
sS'KVUJ'
p4629
(g71
g17
tp4630
sS'QBAS'
p4631
(g173
g7
tp4632
sS'KMCW'
p4633
(g63
g7
tp4634
sS'QHAS'
p4635
(g10
g7
tp4636
sS'PHIK'
p4637
(g56
g60
tp4638
sS'KMCX'
p4639
(g462
g399
tp4640
sS'XDYI'
p4641
(g2
g7
tp4642
sS'KU78'
p4643
(g1169
g95
tp4644
sS'KLNP'
p4645
(g229
g17
tp4646
sS'KTHV'
p4647
(g310
g17
tp4648
sS'KNLC'
p4649
(g486
g80
tp4650
sS'PFWS'
p4651
(g477
g32
tp4652
sS'KUTS'
p4653
(g41
g7
tp4654
sS'KS59'
p4655
(g320
g236
tp4656
sS'KS58'
p4657
(g2
g7
tp4658
sS'KUTA'
p4659
(g203
g7
tp4660
sS'KFTG'
p4661
(g291
g236
tp4662
sS'XRED'
p4663
(g20
g7
tp4664
sS'KDHS'
p4665
(g532
g236
tp4666
sS'KDHT'
p4667
(g212
g7
tp4668
sS'KFTN'
p4669
(VAmerica/Matamoros
p4670
g4368
tp4671
sS'KFTK'
p4672
(g390
g17
tp4673
sS'KJLN'
p4674
(g20
g7
tp4675
sS'KFTW'
p4676
(g142
g7
tp4677
sS'K8A3'
p4678
(g220
g7
tp4679
sS'XLBW'
p4680
(g264
g7
tp4681
sS'KSXT'
p4682
(g166
g80
tp4683
sS'KSXU'
p4684
(g291
g236
tp4685
sS'KSXS'
p4686
(g220
g7
tp4687
sS'KFTY'
p4688
(g35
g17
tp4689
sS'KDHN'
p4690
(g220
g7
tp4691
sS'PAPT'
p4692
(g1927
g32
tp4693
sS'KRTS'
p4694
(g486
g80
tp4695
sS'KAQV'
p4696
(g63
g7
tp4697
sS'K33V'
p4698
(g532
g236
tp4699
sS'KNDZ'
p4700
(g220
g7
tp4701
sS'KM19'
p4702
(g163
g7
tp4703
sS'KWYS'
p4704
(g1169
g95
tp4705
sS'KIRK'
p4706
(g2
g7
tp4707
sS'XAOS'
p4708
(g212
g7
tp4709
sS'K6R3'
p4710
(g20
g7
tp4711
sS'KTBN'
p4712
(g2
g7
tp4713
sS'QGMM'
p4714
(g2
g7
tp4715
sS'K17N'
p4716
(g415
g17
tp4717
sS'KSVE'
p4718
(g364
g80
tp4719
sS'KBVY'
p4720
(g529
g17
tp4721
sS'KTCS'
p4722
(g493
g236
tp4723
sS'KSVC'
p4724
(g810
g236
tp4725
sS'K20V'
p4726
(g532
g236
tp4727
sS'KSVN'
p4728
(g13
g17
tp4729
sS'K6R6'
p4730
(g212
g7
tp4731
sS'QWGI'
p4732
(g63
g7
tp4733
sS'KGNR'
p4734
(g1531
g17
tp4735
sS'KLQK'
p4736
(g229
g17
tp4737
sS'KD57'
p4738
(g271
g236
tp4739
sS'QTMM'
p4740
(g2
g7
tp4741
sS'KOFF'
p4742
(g41
g7
tp4743
sS'KMVY'
p4744
(g529
g17
tp4745
sS'KOFP'
p4746
(g120
g17
tp4747
sS'KVGT'
p4748
(g127
g80
tp4749
sS'KMVE'
p4750
(g41
g7
tp4751
sS'KMVN'
p4752
(g682
g7
tp4753
sS'KMVL'
p4754
(g529
g17
tp4755
sS'QTMS'
p4756
(g191
g7
tp4757
sS'XDMS'
p4758
(g212
g7
tp4759
sS'K4X4'
p4760
(g191
g7
tp4761
sS'KHTH'
p4762
(g156
g80
tp4763
sS'KEFK'
p4764
(g529
g17
tp4765
sS'K1P1'
p4766
(g117
g17
tp4767
sS'PAHL'
p4768
(g477
g32
tp4769
sS'KUNO'
p4770
(g163
g7
tp4771
sS'KCHK'
p4772
(g142
g7
tp4773
sS'KPWG'
p4774
(g142
g7
tp4775
sS'KRKS'
p4776
(g373
g236
tp4777
sS'KRKP'
p4778
(g142
g7
tp4779
sS'KRKW'
p4780
(g35
g17
tp4781
sS'KGNA'
p4782
(g2
g7
tp4783
sS'KINT'
p4784
(g71
g17
tp4785
sS'KTSP'
p4786
(g156
g80
tp4787
sS'QVMS'
p4788
(g173
g7
tp4789
sS'QPAI'
p4790
(g20
g7
tp4791
sS'KRKD'
p4792
(g1531
g17
tp4793
sS'XGO1'
p4794
(g264
g7
tp4795
sS'KTEB'
p4796
(g669
g17
tp4797
sS'KATT'
p4798
(g142
g7
tp4799
sS'KIKW'
p4800
(g133
g137
tp4801
sS'KIKV'
p4802
(g63
g7
tp4803
sS'KTEX'
p4804
(g493
g236
tp4805
sS'XQCI'
p4806
(g203
g7
tp4807
sS'KIKK'
p4808
(g496
g7
tp4809
sS'KIKG'
p4810
(g191
g7
tp4811
sS'KATW'
p4812
(g682
g7
tp4813
sS'KIKA'
p4814
(g291
g236
tp4815
sS'KTEW'
p4816
(g133
g137
tp4817
sS'XDEC'
p4818
(g163
g7
tp4819
sS'KGKJ'
p4820
(g71
g17
tp4821
sS'KEST'
p4822
(g20
g7
tp4823
sS'XDEW'
p4824
(g203
g7
tp4825
sS'XDES'
p4826
(g63
g7
tp4827
sS'KGKY'
p4828
(g142
g7
tp4829
sS'KESN'
p4830
(g85
g17
tp4831
sS'KESC'
p4832
(g1300
g1304
tp4833
sS'KGKT'
p4834
(g53
g17
tp4835
sS'KCDH'
p4836
(g2
g7
tp4837
sS'KESF'
p4838
(g2
g7
tp4839
sS'KC29'
p4840
(g38
g7
tp4841
sS'KPYX'
p4842
(g66
g7
tp4843
sS'KCDI'
p4844
(g13
g17
tp4845
sS'QKAS'
p4846
(g271
g236
tp4847
sS'QCQI'
p4848
(g2
g7
tp4849
sS'KVSH'
p4850
(g203
g7
tp4851
sS'KPYN'
p4852
(g203
g7
tp4853
sS'KPYM'
p4854
(g529
g17
tp4855
sS'XAHS'
p4856
(g264
g7
tp4857
sS'KFYV'
p4858
(g20
g7
tp4859
sS'K0V4'
p4860
(g434
g17
tp4861
sS'KHQZ'
p4862
(g173
g7
tp4863
sS'KEOK'
p4864
(g163
g7
tp4865
sS'KCDS'
p4866
(g66
g7
tp4867
sS'KEOE'
p4868
(g13
g17
tp4869
sS'QRCM'
p4870
(g41
g7
tp4871
sS'KCOU'
p4872
(g2
g7
tp4873
sS'KCOT'
p4874
(g10
g7
tp4875
sS'KCOS'
p4876
(g291
g236
tp4877
sS'KCOQ'
p4878
(g2
g7
tp4879
sS'KHQU'
p4880
(g229
g17
tp4881
sS'KCON'
p4882
(g117
g17
tp4883
sS'KCOM'
p4884
(g10
g7
tp4885
sS'KHQI'
p4886
(g163
g7
tp4887
sS'KBKS'
p4888
(g191
g7
tp4889
sS'KCOI'
p4890
(g229
g17
tp4891
sS'XBUR'
p4892
(g163
g7
tp4893
sS'KCOF'
p4894
(g229
g17
tp4895
sS'KCOE'
p4896
(g298
g80
tp4897
sS'KCOD'
p4898
(g373
g236
tp4899
sS'KHQG'
p4900
(g264
g7
tp4901
sS'KEOS'
p4902
(g20
g7
tp4903
sS'QETS'
p4904
(g10
g7
tp4905
sS'KBUF'
p4906
(g85
g17
tp4907
sS'QRMI'
p4908
(g63
g7
tp4909
sS'KPKD'
p4910
(g41
g7
tp4911
sS'KGYL'
p4912
(g20
g7
tp4913
sS'KGYI'
p4914
(g173
g7
tp4915
sS'KGYH'
p4916
(g229
g17
tp4917
sS'KPKB'
p4918
(g13
g17
tp4919
sS'KLHQ'
p4920
(g229
g17
tp4921
sS'KGYR'
p4922
(g46
g50
tp4923
sS'KPKV'
p4924
(g173
g7
tp4925
sS'KNSE'
p4926
(g496
g7
tp4927
sS'KGYY'
p4928
(g496
g7
tp4929
sS'QRMS'
p4930
(g142
g7
tp4931
sS'KCQC'
p4932
(g232
g236
tp4933
sS'KCQB'
p4934
(g173
g7
tp4935
sS'KCQF'
p4936
(g220
g7
tp4937
sS'KHCD'
p4938
(g20
g7
tp4939
sS'KSNH'
p4940
(g682
g7
tp4941
sS'KFKR'
p4942
(g462
g399
tp4943
sS'KFKS'
p4944
(g956
g137
tp4945
sS'KFKN'
p4946
(g310
g17
tp4947
sS'KFKL'
p4948
(g434
g17
tp4949
sS'KCQT'
p4950
(g156
g80
tp4951
sS'KCQW'
p4952
(g434
g17
tp4953
sS'KCQV'
p4954
(g76
g80
tp4955
sS'KCQX'
p4956
(g117
g17
tp4957
sS'KEMM'
p4958
(g286
g236
tp4959
sS'KFKA'
p4960
(g2
g7
tp4961
sS'XIAC'
p4962
(g163
g7
tp4963
sS'KNOG'
p4964
(g191
g7
tp4965
sS'KLOZ'
p4966
(g35
g17
tp4967
sS'KLOT'
p4968
(g682
g7
tp4969
sS'KLOU'
p4970
(g390
g17
tp4971
sS'KUUU'
p4972
(g23
g17
tp4973
sS'KLOR'
p4974
(g220
g7
tp4975
sS'KLOL'
p4976
(g156
g80
tp4977
sS'KLOM'
p4978
(g415
g17
tp4979
sS'KHSR'
p4980
(g949
g236
tp4981
sS'POLI'
p4982
(g514
g32
tp4983
sS'XWOS'
p4984
(g212
g7
tp4985
sS'KSYI'
p4986
(g307
g7
tp4987
sS'KAAF'
p4988
(g53
g17
tp4989
sS'KFWA'
p4990
(g395
g399
tp4991
sS'KSYM'
p4992
(g53
g17
tp4993
sS'KAAA'
p4994
(g38
g7
tp4995
sS'KSYN'
p4996
(g63
g7
tp4997
sS'KAAO'
p4998
(g142
g7
tp4999
sS'KDGW'
p5000
(g232
g236
tp5001
sS'KFWN'
p5002
(g669
g17
tp5003
sS'KEHA'
p5004
(g264
g7
tp5005
sS'KLXV'
p5006
(g532
g236
tp5007
sS'KFWS'
p5008
(g142
g7
tp5009
sS'KAAT'
p5010
(g364
g80
tp5011
sS'KFWZ'
p5012
(g810
g236
tp5013
sS'KJOT'
p5014
(g682
g7
tp5015
sS'KSYR'
p5016
(g85
g17
tp5017
sS'KCAD'
p5018
(g376
g137
tp5019
sS'KFET'
p5020
(g173
g7
tp5021
sS'KAOH'
p5022
(g35
g17
tp5023
sS'KFEW'
p5024
(g291
g236
tp5025
sS'KFEP'
p5026
(g38
g7
tp5027
sS'KAOO'
p5028
(g85
g17
tp5029
sS'KUKF'
p5030
(g13
g17
tp5031
sS'KUKI'
p5032
(g166
g80
tp5033
sS'KSKX'
p5034
(g232
g236
tp5035
sS'KUKL'
p5036
(g41
g7
tp5037
sS'KFED'
p5038
(g191
g7
tp5039
sS'KSKA'
p5040
(g76
g80
tp5041
sS'KUKT'
p5042
(g415
g17
tp5043
sS'XNEW'
p5044
(g2
g7
tp5045
sS'KCAK'
p5046
(g13
g17
tp5047
sS'KSKL'
p5048
(g532
g236
tp5049
sS'PAGY'
p5050
(g2277
g1046
tp5051
sS'KBUR'
p5052
(g156
g80
tp5053
sS'KDYB'
p5054
(g71
g17
tp5055
sS'KBUU'
p5056
(g682
g7
tp5057
sS'KDYA'
p5058
(g496
g7
tp5059
sS'KBUY'
p5060
(g434
g17
tp5061
sS'KDYL'
p5062
(g415
g17
tp5063
sS'PAGS'
p5064
(g1938
g734
tp5065
sS'KLSE'
p5066
(g163
g7
tp5067
sS'PAGH'
p5068
(g1068
g32
tp5069
sS'KDYT'
p5070
(g2
g7
tp5071
sS'PAGK'
p5072
(g1034
g32
tp5073
sS'PAGL'
p5074
(g3341
g102
tp5075
sS'PAGM'
p5076
(VAmerica/Nome
p5077
g102
tp5078
sS'PAGN'
p5079
(g1042
g1046
tp5080
sS'PAGA'
p5081
(g477
g32
tp5082
sS'PAGB'
p5083
(g514
g32
tp5084
sS'XCXS'
p5085
(g66
g7
tp5086
sS'KBUO'
p5087
(g298
g80
tp5088
sS'KSWF'
p5089
(g669
g17
tp5090
sS'K1M5'
p5091
(g307
g7
tp5092
sS'K1M4'
p5093
(g496
g7
tp5094
sS'KSWO'
p5095
(g142
g7
tp5096
sS'KJAN'
p5097
(g203
g7
tp5098
sS'KJAS'
p5099
(g20
g7
tp5100
sS'K3A1'
p5101
(g307
g7
tp5102
sS'KJAU'
p5103
(g35
g17
tp5104
sS'K3A6'
p5105
(g156
g80
tp5106
sS'KJAX'
p5107
(g13
g17
tp5108
sS'QLMI'
p5109
(g63
g7
tp5110
sS'KBID'
p5111
(g23
g17
tp5112
sS'KOGB'
p5113
(g71
g17
tp5114
sS'KOGA'
p5115
(g271
g236
tp5116
sS'KJAC'
p5117
(g286
g236
tp5118
sS'KOGD'
p5119
(g832
g236
tp5120
sS'KBIL'
p5121
(g810
g236
tp5122
sS'KMWT'
p5123
(g63
g7
tp5124
sS'KBIH'
p5125
(g156
g80
tp5126
sS'K5M9'
p5127
(g682
g7
tp5128
sS'KS25'
p5129
(g949
g236
tp5130
sS'KOGS'
p5131
(g415
g17
tp5132
sS'KMWL'
p5133
(g191
g7
tp5134
sS'KBIV'
p5135
(g682
g7
tp5136
sS'KMWN'
p5137
(g117
g17
tp5138
sS'KMWH'
p5139
(g486
g80
tp5140
sS'KMWK'
p5141
(g71
g17
tp5142
sS'QROI'
p5143
(g20
g7
tp5144
sS'KHHV'
p5145
NsS'KMWA'
p5146
(g38
g7
tp5147
sS'KMWC'
p5148
(g682
g7
tp5149
sS'KOQU'
p5150
(g23
g17
tp5151
sS'KOQT'
p5152
(g35
g17
tp5153
sS'PAUT'
p5154
NsS'KBGM'
p5155
(g415
g17
tp5156
sS'KBIE'
p5157
(g173
g7
tp5158
sS'KBGF'
p5159
(g307
g7
tp5160
sS'KBGD'
p5161
(g264
g7
tp5162
sS'KBGE'
p5163
(g35
g17
tp5164
sS'KBIF'
p5165
(g532
g236
tp5166
sS'K84D'
p5167
(g271
g236
tp5168
sS'KP35'
p5169
(g63
g7
tp5170
sS'PAUD'
p5171
(g1071
g32
tp5172
sS'KM25'
p5173
(g682
g7
tp5174
sS'KVTA'
p5175
(g229
g17
tp5176
sS'KM21'
p5177
(g496
g7
tp5178
sS'PAUN'
p5179
(g88
g32
tp5180
sS'KVTN'
p5181
(g66
g7
tp5182
sS'XMC1'
p5183
(g66
g7
tp5184
sS'PAUM'
p5185
(g1927
g32
tp5186
sS'KBGR'
p5187
(g315
g17
tp5188
sS'QIFI'
p5189
(g63
g7
tp5190
sS'KVTI'
p5191
(g2
g7
tp5192
sS'PHJH'
p5193
NsS'PHJR'
p5194
NsS'K3AU'
p5195
(g142
g7
tp5196
sS'KMPV'
p5197
(g529
g17
tp5198
sS'KEXX'
p5199
(g71
g17
tp5200
sS'KMAI'
p5201
(g220
g7
tp5202
sS'KMAO'
p5203
(g434
g17
tp5204
sS'KMAN'
p5205
(g1600
g95
tp5206
sS'XONS'
p5207
(g212
g7
tp5208
sS'KTDR'
p5209
(g220
g7
tp5210
sS'QLTS'
p5211
(g173
g7
tp5212
sS'KMAF'
p5213
(g212
g7
tp5214
sS'KMAE'
p5215
(g364
g80
tp5216
sS'K01M'
p5217
(g682
g7
tp5218
sS'KTDF'
p5219
(g85
g17
tp5220
sS'XONA'
p5221
(g173
g7
tp5222
sS'K4I3'
p5223
(g229
g17
tp5224
sS'KILN'
p5225
(g53
g17
tp5226
sS'KECP'
p5227
(g220
g7
tp5228
sS'KTDO'
p5229
(g106
g80
tp5230
sS'KMAW'
p5231
(g38
g7
tp5232
sS'KILE'
p5233
(g142
g7
tp5234
sS'KILG'
p5235
(g415
g17
tp5236
sS'KBIT'
p5237
(g810
g236
tp5238
sS'KGHB'
p5239
NsS'KECU'
p5240
(g66
g7
tp5241
sS'KGHG'
p5242
(g315
g17
tp5243
sS'KCRW'
p5244
(g13
g17
tp5245
sS'QMAM'
p5246
(g173
g7
tp5247
sS'QMAI'
p5248
(g2
g7
tp5249
sS'KGHW'
p5250
(g41
g7
tp5251
sS'KGPC'
p5252
(g462
g399
tp5253
sS'KBIS'
p5254
(g66
g7
tp5255
sS'K2P2'
p5256
(g682
g7
tp5257
sS'KAIT'
p5258
(g63
g7
tp5259
sS'XANS'
p5260
(g212
g7
tp5261
sS'KBIX'
p5262
(g307
g7
tp5263
sS'QOAI'
p5264
(g2
g7
tp5265
sS'XANK'
p5266
(g63
g7
tp5267
sS'K4BM'
p5268
(g232
g236
tp5269
sS'QGNI'
p5270
(g63
g7
tp5271
sS'KEDW'
p5272
(g76
g80
tp5273
sS'KRKR'
p5274
(g20
g7
tp5275
sS'KNRS'
p5276
(g127
g80
tp5277
sS'QOGI'
p5278
(g20
g7
tp5279
sS'KNRN'
p5280
(g10
g7
tp5281
sS'KNRB'
p5282
(g53
g17
tp5283
sS'K8D3'
p5284
(g173
g7
tp5285
sS'KE12'
p5286
(g203
g7
tp5287
sS'KE11'
p5288
(g212
g7
tp5289
sS'KE16'
p5290
(g215
g80
tp5291
sS'KHBI'
p5292
(g434
g17
tp5293
sS'KHBG'
p5294
(g38
g7
tp5295
sS'KHBE'
p5296
(g462
g399
tp5297
sS'KVTP'
p5298
(g232
g236
tp5299
sS'QKWI'
p5300
(g63
g7
tp5301
sS'K2W6'
p5302
(g85
g17
tp5303
sS'KHBV'
p5304
(g191
g7
tp5305
sS'KHBR'
p5306
(g10
g7
tp5307
sS'KHMS'
p5308
(g486
g80
tp5309
sS'KEDJ'
p5310
(g53
g17
tp5311
sS'KWLD'
p5312
(g142
g7
tp5313
sS'KRWL'
p5314
(g493
g236
tp5315
sS'KC35'
p5316
(g38
g7
tp5317
sS'K6I2'
p5318
(g390
g17
tp5319
sS'K2WX'
p5320
(g949
g236
tp5321
sS'KTRB'
p5322
(g264
g7
tp5323
sS'KBFI'
p5324
(g106
g80
tp5325
sS'KTRK'
p5326
(g364
g80
tp5327
sS'KTRI'
p5328
(g229
g17
tp5329
sS'KTRM'
p5330
(g298
g80
tp5331
sS'KTRL'
p5332
(g173
g7
tp5333
sS'KGUY'
p5334
(g264
g7
tp5335
sS'KTRV'
p5336
(g229
g17
tp5337
sS'KRJD'
p5338
(g415
g17
tp5339
sS'KFDW'
p5340
(g13
g17
tp5341
sS'KAPV'
p5342
(g76
g80
tp5343
sS'KFDR'
p5344
(g191
g7
tp5345
sS'KAPS'
p5346
(g203
g7
tp5347
sS'KSHV'
p5348
(g63
g7
tp5349
sS'XTA1'
p5350
(g264
g7
tp5351
sS'KHPN'
p5352
(g23
g17
tp5353
sS'KSHR'
p5354
(g532
g236
tp5355
sS'KAPY'
p5356
(g10
g7
tp5357
sS'KFDY'
p5358
(g53
g17
tp5359
sS'KSHN'
p5360
(g166
g80
tp5361
sS'KAPF'
p5362
(g13
g17
tp5363
sS'KLPR'
p5364
(g229
g17
tp5365
sS'KAPA'
p5366
(g291
g236
tp5367
sS'KAPC'
p5368
(g106
g80
tp5369
sS'KAPN'
p5370
(g376
g137
tp5371
sS'KFDK'
p5372
(g120
g17
tp5373
sS'KSHC'
p5374
(g373
g236
tp5375
sS'K5A6'
p5376
(g38
g7
tp5377
sS'KBTR'
p5378
(g163
g7
tp5379
sS'KBTP'
p5380
(g434
g17
tp5381
sS'KBTV'
p5382
(g23
g17
tp5383
sS'PAFS'
p5384
(g114
g32
tp5385
sS'PAFR'
p5386
(g514
g32
tp5387
sS'PAFK'
p5388
(g1442
g32
tp5389
sS'KMER'
p5390
(g364
g80
tp5391
sS'KBTA'
p5392
(g173
g7
tp5393
sS'KDXR'
p5394
(g23
g17
tp5395
sS'PAFN'
p5396
(g1042
g1046
tp5397
sS'PAFM'
p5398
(g1068
g32
tp5399
sS'KMWS'
p5400
(g156
g80
tp5401
sS'PAFB'
p5402
(g28
g32
tp5403
sS'PAFA'
p5404
(g28
g32
tp5405
sS'KDXZ'
p5406
(g1711
g236
tp5407
sS'KBTN'
p5408
(g142
g7
tp5409
sS'PAFE'
p5410
(VAmerica/Sitka
p5411
g1922
tp5412
sS'KBTL'
p5413
(g376
g137
tp5414
sS'QCRI'
p5415
(g20
g7
tp5416
sS'KABY'
p5417
(g35
g17
tp5418
sS'KPXE'
p5419
(g53
g17
tp5420
sS'XCEN'
p5421
(g2
g7
tp5422
sS'KEHO'
p5423
(g13
g17
tp5424
sS'XTAS'
p5425
(g264
g7
tp5426
sS'KPGD'
p5427
(g13
g17
tp5428
sS'KEHC'
p5429
(g203
g7
tp5430
sS'KCLW'
p5431
(g229
g17
tp5432
sS'KCLT'
p5433
(g71
g17
tp5434
sS'XTAT'
p5435
(g949
g236
tp5436
sS'KCLK'
p5437
(g191
g7
tp5438
sS'KMWM'
p5439
(g41
g7
tp5440
sS'KCLL'
p5441
(g173
g7
tp5442
sS'KCLM'
p5443
(VAmerica/Vancouver
p5444
g523
tp5445
sS'K05U'
p5446
(g127
g80
tp5447
sS'KEHR'
p5448
(g496
g7
tp5449
sS'KGUN'
p5450
(g291
g236
tp5451
sS'KCLE'
p5452
(g13
g17
tp5453
sS'PATQ'
p5454
(g1068
g32
tp5455
sS'KMDD'
p5456
(g212
g7
tp5457
sS'KOVS'
p5458
(g203
g7
tp5459
sS'KBFM'
p5460
(g682
g7
tp5461
sS'KBFL'
p5462
(g486
g80
tp5463
sS'PATW'
p5464
(g1071
g32
tp5465
sS'KVWU'
p5466
(VAmerica/Winnipeg
p5467
g3
(S'America/Winnipeg'
p5468
I-23340
I0
S'LMT'
p5469
tp5470
Rp5471
tp5472
sS'KO54'
p5473
(g106
g80
tp5474
sS'KO57'
p5475
(g486
g80
tp5476
sS'KFWB'
p5477
(g63
g7
tp5478
sS'PATA'
p5479
(g1927
g32
tp5480
sS'KJN8'
p5481
(g66
g7
tp5482
sS'PATC'
p5483
(VAmerica/Nome
p5484
g102
tp5485
sS'PATE'
p5486
(g3126
g102
tp5487
sS'KOVE'
p5488
(g215
g80
tp5489
sS'PATG'
p5490
(g88
g32
tp5491
sS'PATK'
p5492
(g3417
g32
tp5493
sS'XQU1'
p5494
(g264
g7
tp5495
sS'KOVL'
p5496
(g41
g7
tp5497
sS'PATL'
p5498
(g1449
g32
tp5499
sS'KOVN'
p5500
(g173
g7
tp5501
sS'PHKO'
p5502
NsS'KVOK'
p5503
(g203
g7
tp5504
sS'PFKW'
p5505
(g664
g32
tp5506
sS'PFKT'
p5507
(g3126
g102
tp5508
sS'KMWO'
p5509
(g35
g17
tp5510
sS'QDPS'
p5511
(g191
g7
tp5512
sS'KU16'
p5513
(g1711
g236
tp5514
sS'KPAM'
p5515
(g220
g7
tp5516
sS'KSPS'
p5517
(g191
g7
tp5518
sS'K65S'
p5519
(g298
g80
tp5520
sS'KGGW'
p5521
(g532
g236
tp5522
sS'KLNS'
p5523
(g310
g17
tp5524
sS'KLNR'
p5525
(g203
g7
tp5526
sS'KIWD'
p5527
(g203
g7
tp5528
sS'KLNN'
p5529
(g13
g17
tp5530
sS'KS39'
p5531
(g364
g80
tp5532
sS'KLNL'
p5533
(g3509
g137
tp5534
sS'K3N8'
p5535
(g41
g7
tp5536
sS'KS33'
p5537
(g215
g80
tp5538
sS'KS32'
p5539
(g191
g7
tp5540
sS'K3N6'
p5541
(g669
g17
tp5542
sS'KUVA'
p5543
(g10
g7
tp5544
sS'KLNC'
p5545
(g173
g7
tp5546
sS'KS34'
p5547
(g998
g236
tp5548
sS'XCES'
p5549
(g66
g7
tp5550
sS'KSFQ'
p5551
(g310
g17
tp5552
sS'KABE'
p5553
(g415
g17
tp5554
sS'KFVE'
p5555
(g315
g17
tp5556
sS'KABH'
p5557
(g291
g236
tp5558
sS'KABI'
p5559
(g10
g7
tp5560
sS'KN87'
p5561
(g669
g17
tp5562
sS'KSFY'
p5563
(g203
g7
tp5564
sS'KN85'
p5565
(g415
g17
tp5566
sS'KABR'
p5567
(g191
g7
tp5568
sS'KJNX'
p5569
(g85
g17
tp5570
sS'KSFF'
p5571
(g76
g80
tp5572
sS'KABQ'
p5573
(g532
g236
tp5574
sS'XWIL'
p5575
(g63
g7
tp5576
sS'K9K8'
p5577
(g191
g7
tp5578
sS'KSFB'
p5579
(g13
g17
tp5580
sS'KSFM'
p5581
(g315
g17
tp5582
sS'K9K7'
p5583
(g191
g7
tp5584
sS'XUM1'
p5585
(g212
g7
tp5586
sS'KJNW'
p5587
(g106
g80
tp5588
sS'KREE'
p5589
(g212
g7
tp5590
sS'XSC1'
p5591
(g264
g7
tp5592
sS'KMDS'
p5593
(g142
g7
tp5594
sS'KM30'
p5595
(g682
g7
tp5596
sS'KM33'
p5597
(g307
g7
tp5598
sS'XDUB'
p5599
(g203
g7
tp5600
sS'XFAS'
p5601
(g212
g7
tp5602
sS'KM02'
p5603
(g496
g7
tp5604
sS'KP28'
p5605
(g191
g7
tp5606
sS'K2DP'
p5607
(g120
g17
tp5608
sS'KUDG'
p5609
(g434
g17
tp5610
sS'KGGG'
p5611
(g20
g7
tp5612
sS'KRRK'
p5613
(g106
g80
tp5614
sS'KGGE'
p5615
(g120
g17
tp5616
sS'KSTC'
p5617
(g20
g7
tp5618
sS'KSTF'
p5619
(g682
g7
tp5620
sS'K2D5'
p5621
(g191
g7
tp5622
sS'KSTE'
p5623
(g38
g7
tp5624
sS'KSTJ'
p5625
(g20
g7
tp5626
sS'KSTK'
p5627
(g949
g236
tp5628
sS'QWAI'
p5629
(g41
g7
tp5630
sS'KSTL'
p5631
(g203
g7
tp5632
sS'KSTR'
p5633
(g1025
g236
tp5634
sS'KSTS'
p5635
(g106
g80
tp5636
sS'KSTP'
p5637
(g63
g7
tp5638
sS'KSTZ'
p5639
(g2
g7
tp5640
sS'KTDZ'
p5641
(g53
g17
tp5642
sS'KODO'
p5643
(g212
g7
tp5644
sS'KMPZ'
p5645
(g163
g7
tp5646
sS'KBHC'
p5647
(g229
g17
tp5648
sS'KBHB'
p5649
(VAmerica/Moncton
p5650
g583
tp5651
sS'KMPR'
p5652
(g142
g7
tp5653
sS'K22N'
p5654
(g415
g17
tp5655
sS'KVAD'
p5656
(g53
g17
tp5657
sS'KVAF'
p5658
(g173
g7
tp5659
sS'KVAY'
p5660
(g669
g17
tp5661
sS'KCWA'
p5662
(g38
g7
tp5663
sS'KODX'
p5664
(g191
g7
tp5665
sS'KMPO'
p5666
(g415
g17
tp5667
sS'KILL'
p5668
(g41
g7
tp5669
sS'KBVX'
p5670
(g163
g7
tp5671
sS'KILM'
p5672
(g434
g17
tp5673
sS'XASU'
p5674
(g66
g7
tp5675
sS'KWMC'
p5676
(g76
g80
tp5677
sS'KRRT'
p5678
(g41
g7
tp5679
sS'XASR'
p5680
(g66
g7
tp5681
sS'K4V0'
p5682
(g810
g236
tp5683
sS'K1R7'
p5684
(g203
g7
tp5685
sS'KSMQ'
p5686
(g669
g17
tp5687
sS'KDRM'
p5688
(g245
g137
tp5689
sS'KRMY'
p5690
(g133
g137
tp5691
sS'KBFF'
p5692
(g949
g236
tp5693
sS'KTQK'
p5694
(g66
g7
tp5695
sS'KTQH'
p5696
(g20
g7
tp5697
sS'K82V'
p5698
(g291
g236
tp5699
sS'KTQE'
p5700
(g173
g7
tp5701
sS'QHPI'
p5702
(g63
g7
tp5703
sS'QPCI'
p5704
(g20
g7
tp5705
sS'XAM2'
p5706
(g264
g7
tp5707
sS'XAM3'
p5708
(g264
g7
tp5709
sS'KRMN'
p5710
(g120
g17
tp5711
sS'XAM1'
p5712
(g264
g7
tp5713
sS'PAMM'
p5714
(VAmerica/Sitka
p5715
g1922
tp5716
sS'KRME'
p5717
(g415
g17
tp5718
sS'QCAI'
p5719
(g20
g7
tp5720
sS'KRMG'
p5721
(g390
g17
tp5722
sS'KMBT'
p5723
(g307
g7
tp5724
sS'XAME'
p5725
(g63
g7
tp5726
sS'KMBS'
p5727
(g133
g137
tp5728
sS'KOJC'
p5729
(g20
g7
tp5730
sS'KIMS'
p5731
(g390
g17
tp5732
sS'XAMH'
p5733
(g212
g7
tp5734
sS'KMBY'
p5735
(g2
g7
tp5736
sS'KMBF'
p5737
(g71
g17
tp5738
sS'KMBG'
p5739
(g66
g7
tp5740
sS'KTCC'
p5741
(g949
g236
tp5742
sS'KIMM'
p5743
(g13
g17
tp5744
sS'KIML'
p5745
(g271
g236
tp5746
sS'KMBO'
p5747
(g203
g7
tp5748
sS'KMBL'
p5749
(g956
g137
tp5750
sS'KTCL'
p5751
(g496
g7
tp5752
sS'KTCM'
p5753
(g965
g523
tp5754
sS'K9V9'
p5755
(g10
g7
tp5756
sS'K0F2'
p5757
(g142
g7
tp5758
sS'XLA1'
p5759
(g264
g7
tp5760
sS'KGIF'
p5761
(g13
g17
tp5762
sS'KGIC'
p5763
(g298
g80
tp5764
sS'K2V5'
p5765
(g1025
g236
tp5766
sS'K2V6'
p5767
(g1025
g236
tp5768
sS'QCSI'
p5769
(g173
g7
tp5770
sS'XMIS'
p5771
(g41
g7
tp5772
sS'KPOY'
p5773
(g810
g236
tp5774
sS'KTKV'
p5775
(g38
g7
tp5776
sS'KARW'
p5777
(g229
g17
tp5778
sS'KEIK'
p5779
(g232
g236
tp5780
sS'PAMX'
p5781
(g3686
g32
tp5782
sS'K82C'
p5783
(g203
g7
tp5784
sS'QRAS'
p5785
(g949
g236
tp5786
sS'KBIJ'
p5787
(g35
g17
tp5788
sS'XCO1'
p5789
(g130
g7
tp5790
sS'KEIR'
p5791
(g38
g7
tp5792
sS'KPRX'
p5793
(g41
g7
tp5794
sS'KLGU'
p5795
(g383
g236
tp5796
sS'KCFD'
p5797
(g173
g7
tp5798
sS'KPIH'
p5799
(g91
g95
tp5800
sS'KPIN'
p5801
(g532
g236
tp5802
sS'KPIL'
p5803
(g2268
g1242
tp5804
sS'KPIM'
p5805
(g35
g17
tp5806
sS'KPIB'
p5807
(g38
g7
tp5808
sS'KPIA'
p5809
(g38
g7
tp5810
sS'KPIE'
p5811
(g229
g17
tp5812
sS'KFRR'
p5813
(g85
g17
tp5814
sS'KIKT'
p5815
NsS'KPIR'
p5816
(g66
g7
tp5817
sS'KHON'
p5818
(g191
g7
tp5819
sS'QRSI'
p5820
(g63
g7
tp5821
sS'KPIT'
p5822
(g71
g17
tp5823
sS'KFFM'
p5824
(g173
g7
tp5825
sS'KHAI'
p5826
(g395
g399
tp5827
sS'KHAO'
p5828
(g35
g17
tp5829
sS'PAMO'
p5830
(g2282
g102
tp5831
sS'KHAF'
p5832
(g106
g80
tp5833
sS'PAML'
p5834
(g3417
g32
tp5835
sS'KHAE'
p5836
(g163
g7
tp5837
sS'KC04'
p5838
(g395
g399
tp5839
sS'K0R4'
p5840
(g163
g7
tp5841
sS'KHAT'
p5842
(g120
g17
tp5843
sS'KC09'
p5844
(g682
g7
tp5845
sS'XIGI'
p5846
(g41
g7
tp5847
sS'PAED'
p5848
(g514
g32
tp5849
sS'KHZL'
p5850
(g415
g17
tp5851
sS'PAEC'
p5852
(g514
g32
tp5853
sS'PAEN'
p5854
(g526
g32
tp5855
sS'PAEL'
p5856
(VAmerica/Juneau
p5857
g1046
tp5858
sS'PAEM'
p5859
(g2383
g102
tp5860
sS'KNID'
p5861
(g76
g80
tp5862
sS'PAEH'
p5863
(g88
g32
tp5864
sS'PAEI'
p5865
(g28
g32
tp5866
sS'KLMK'
p5867
(g390
g17
tp5868
sS'PAER'
p5869
(g1442
g32
tp5870
sS'KLMO'
p5871
(g232
g236
tp5872
sS'KNIP'
p5873
(g13
g17
tp5874
sS'KSGU'
p5875
(g1711
g236
tp5876
sS'KSGT'
p5877
(g163
g7
tp5878
sS'KSGS'
p5879
(g63
g7
tp5880
sS'KSGR'
p5881
(g41
g7
tp5882
sS'KACK'
p5883
(g529
g17
tp5884
sS'KACJ'
p5885
(g35
g17
tp5886
sS'PAMB'
p5887
(g1068
g32
tp5888
sS'KDEQ'
p5889
(g20
g7
tp5890
sS'KFQD'
p5891
(g13
g17
tp5892
sS'KDEW'
p5893
(g76
g80
tp5894
sS'KDET'
p5895
(g4494
g3926
tp5896
sS'KACB'
p5897
(g376
g137
tp5898
sS'KSGF'
p5899
(g63
g7
tp5900
sS'KDEH'
p5901
(g163
g7
tp5902
sS'KDEN'
p5903
(g291
g236
tp5904
sS'KARL'
p5905
(g532
g236
tp5906
sS'KDEC'
p5907
(g682
g7
tp5908
sS'KBPT'
p5909
(g2
g7
tp5910
sS'KACV'
p5911
(g106
g80
tp5912
sS'KACQ'
p5913
(g63
g7
tp5914
sS'KSGJ'
p5915
(g13
g17
tp5916
sS'KDED'
p5917
(g13
g17
tp5918
sS'KSGH'
p5919
(g53
g17
tp5920
sS'KAQW'
p5921
(g23
g17
tp5922
sS'KCMD'
p5923
(g307
g7
tp5924
sS'XRRS'
p5925
(g66
g7
tp5926
sS'KHWD'
p5927
(g364
g80
tp5928
sS'KSBN'
p5929
(g462
g399
tp5930
sS'KSKF'
p5931
(g191
g7
tp5932
sS'KCMB'
p5933
(g203
g7
tp5934
sS'KFGX'
p5935
(g53
g17
tp5936
sS'KCFS'
p5937
(g245
g137
tp5938
sS'KCMI'
p5939
(g682
g7
tp5940
sS'KCMH'
p5941
(g229
g17
tp5942
sS'KHWO'
p5943
(g71
g17
tp5944
sS'KAFN'
p5945
(g117
g17
tp5946
sS'KSIK'
p5947
(g38
g7
tp5948
sS'KHWV'
p5949
(g669
g17
tp5950
sS'KCMR'
p5951
(g46
g50
tp5952
sS'KAQO'
p5953
(g191
g7
tp5954
sS'KHWY'
p5955
(g120
g17
tp5956
sS'KSIB'
p5957
(g232
g236
tp5958
sS'KFGN'
p5959
(g5467
g5471
tp5960
sS'KCMX'
p5961
(VAmerica/Detroit
p5962
g137
tp5963
sS'KMGG'
p5964
(g63
g7
tp5965
sS'KSIF'
p5966
(g434
g17
tp5967
sS'KDWH'
p5968
(g41
g7
tp5969
sS'PAMC'
p5970
(g1449
g32
tp5971
sS'KSBD'
p5972
(g76
g80
tp5973
sS'KXPY'
p5974
(g203
g7
tp5975
sS'KBWP'
p5976
(g173
g7
tp5977
sS'XWE1'
p5978
(g10
g7
tp5979
sS'KDWX'
p5980
(g493
g236
tp5981
sS'XWE2'
p5982
(g212
g7
tp5983
sS'KU28'
p5984
(g286
g236
tp5985
sS'KBWI'
p5986
(g85
g17
tp5987
sS'KBWG'
p5988
(g307
g7
tp5989
sS'KBWD'
p5990
(g191
g7
tp5991
sS'KJRB'
p5992
(g669
g17
tp5993
sS'KLUX'
p5994
(g13
g17
tp5995
sS'K79J'
p5996
(g307
g7
tp5997
sS'KSUM'
p5998
(g142
g7
tp5999
sS'KSUN'
p6000
(g153
g95
tp6001
sS'KUES'
p6002
(g682
g7
tp6003
sS'QWBI'
p6004
(g63
g7
tp6005
sS'KSUE'
p6006
(g38
g7
tp6007
sS'KSUA'
p6008
(VAmerica/Nassau
p6009
g3
(S'America/Nassau'
p6010
I-18540
I0
S'LMT'
p6011
tp6012
Rp6013
tp6014
sS'K49B'
p6015
(g949
g236
tp6016
sS'KSUX'
p6017
(g173
g7
tp6018
sS'KJCT'
p6019
(g10
g7
tp6020
sS'KSUU'
p6021
(g215
g80
tp6022
sS'KSUT'
p6023
(g310
g17
tp6024
sS'KSUW'
p6025
(g2
g7
tp6026
sS'QLOI'
p6027
(g63
g7
tp6028
sS'KHKA'
p6029
(g38
g7
tp6030
sS'KSUS'
p6031
(g203
g7
tp6032
sS'KBKB'
p6033
(g2
g7
tp6034
sS'KMQY'
p6035
(g307
g7
tp6036
sS'KOLM'
p6037
(g106
g80
tp6038
sS'KBKF'
p6039
(g291
g236
tp6040
sS'KOEL'
p6041
(g66
g7
tp6042
sS'KBKD'
p6043
(g191
g7
tp6044
sS'KBKE'
p6045
(g76
g80
tp6046
sS'KMQS'
p6047
(g120
g17
tp6048
sS'KOEB'
p6049
(g395
g399
tp6050
sS'KBKN'
p6051
(g142
g7
tp6052
sS'QHOS'
p6053
(g142
g7
tp6054
sS'KBKL'
p6055
(g13
g17
tp6056
sS'XCL2'
p6057
(g10
g7
tp6058
sS'KMQI'
p6059
(g120
g17
tp6060
sS'XSBI'
p6061
(g63
g7
tp6062
sS'KBKW'
p6063
(g13
g17
tp6064
sS'KMQB'
p6065
(g203
g7
tp6066
sS'K9L2'
p6067
(g76
g80
tp6068
sS'KW81'
p6069
(g85
g17
tp6070
sS'KMQE'
p6071
(g117
g17
tp6072
sS'KOWP'
p6073
(g173
g7
tp6074
sS'KBYS'
p6075
(g298
g80
tp6076
sS'KVVV'
p6077
(g173
g7
tp6078
sS'XSB1'
p6079
(g232
g236
tp6080
sS'KBYY'
p6081
(g142
g7
tp6082
sS'KOWB'
p6083
(g496
g7
tp6084
sS'KOWA'
p6085
(g63
g7
tp6086
sS'KP11'
p6087
(g191
g7
tp6088
sS'KPTS'
p6089
(g20
g7
tp6090
sS'KOWD'
p6091
(g117
g17
tp6092
sS'KBYL'
p6093
(g35
g17
tp6094
sS'KOWI'
p6095
(g41
g7
tp6096
sS'KBYH'
p6097
(g38
g7
tp6098
sS'KBYI'
p6099
(g3314
g95
tp6100
sS'PHLI'
p6101
NsS'KO86'
p6102
(g106
g80
tp6103
sS'KO87'
p6104
(g106
g80
tp6105
sS'KBFW'
p6106
(g63
g7
tp6107
sS'KO88'
p6108
(g215
g80
tp6109
sS'KLUL'
p6110
(g38
g7
tp6111
sS'XLO1'
p6112
(g264
g7
tp6113
sS'PHLU'
p6114
NsS'KOQN'
p6115
(g415
g17
tp6116
sS'KTBR'
p6117
(g13
g17
tp6118
sS'QALI'
p6119
(g2
g7
tp6120
sS'XSTO'
p6121
(g41
g7
tp6122
sS'KOKB'
p6123
(g76
g80
tp6124
sS'XALG'
p6125
(g20
g7
tp6126
sS'K2G9'
p6127
(g434
g17
tp6128
sS'XHAN'
p6129
(g63
g7
tp6130
sS'K2G4'
p6131
(g434
g17
tp6132
sS'KTBX'
p6133
(g810
g236
tp6134
sS'KOKK'
p6135
(g462
g399
tp6136
sS'KOKH'
p6137
(g965
g523
tp6138
sS'KOKV'
p6139
(g85
g17
tp6140
sS'KMCC'
p6141
(g215
g80
tp6142
sS'KMCB'
p6143
(g203
g7
tp6144
sS'KMCE'
p6145
(g364
g80
tp6146
sS'XALT'
p6147
(g63
g7
tp6148
sS'KMCF'
p6149
(g229
g17
tp6150
sS'KMCI'
p6151
(g20
g7
tp6152
sS'QALS'
p6153
(g173
g7
tp6154
sS'KMCK'
p6155
(g66
g7
tp6156
sS'KMCJ'
p6157
(g41
g7
tp6158
sS'KOKZ'
p6159
(g229
g17
tp6160
sS'KMCO'
p6161
(g13
g17
tp6162
sS'KLRD'
p6163
(g10
g7
tp6164
sS'KINF'
p6165
(g229
g17
tp6166
sS'K1A6'
p6167
(g53
g17
tp6168
sS'KIND'
p6169
(g462
g399
tp6170
sS'KGNT'
p6171
(g493
g236
tp6172
sS'KGNV'
p6173
(g229
g17
tp6174
sS'KINL'
p6175
(g63
g7
tp6176
sS'KINJ'
p6177
(g142
g7
tp6178
sS'KINK'
p6179
(g130
g7
tp6180
sS'K1A9'
p6181
(g307
g7
tp6182
sS'KINW'
p6183
(g286
g236
tp6184
sS'KGNB'
p6185
(g232
g236
tp6186
sS'KGNC'
p6187
(g212
g7
tp6188
sS'KINS'
p6189
(g127
g80
tp6190
sS'KGNL'
p6191
(g66
g7
tp6192
sS'XDVS'
p6193
(g212
g7
tp6194
sS'KAXS'
p6195
(g10
g7
tp6196
sS'K1S5'
p6197
(g486
g80
tp6198
sS'K1S3'
p6199
(g532
g236
tp6200
sS'QLYI'
p6201
(g173
g7
tp6202
sS'KEAR'
p6203
(g191
g7
tp6204
sS'QWLM'
p6205
(g2
g7
tp6206
sS'K2GL'
p6207
(g203
g7
tp6208
sS'XHA1'
p6209
(g10
g7
tp6210
sS'XST3'
p6211
(g264
g7
tp6212
sS'XST2'
p6213
(g10
g7
tp6214
sS'XST1'
p6215
(g264
g7
tp6216
sS'QMUI'
p6217
(g63
g7
tp6218
sS'KPHT'
p6219
(g682
g7
tp6220
sS'KPHP'
p6221
(g271
g236
tp6222
sS'KPHX'
p6223
(g46
g50
tp6224
sS'KPHD'
p6225
(g13
g17
tp6226
sS'KPHG'
p6227
(g10
g7
tp6228
sS'KPHF'
p6229
(g310
g17
tp6230
sS'KOAK'
p6231
(g106
g80
tp6232
sS'K0E0'
p6233
(g232
g236
tp6234
sS'KPHL'
p6235
(g415
g17
tp6236
sS'KLZK'
p6237
(g2
g7
tp6238
sS'KPHN'
p6239
(g3922
g3926
tp6240
sS'KHOB'
p6241
(g949
g236
tp6242
sS'QRRI'
p6243
(g2
g7
tp6244
sS'KE38'
p6245
(g130
g7
tp6246
sS'K2I0'
p6247
(g496
g7
tp6248
sS'KE33'
p6249
(g532
g236
tp6250
sS'K6V4'
p6251
(g1025
g236
tp6252
sS'QMWI'
p6253
(g63
g7
tp6254
sS'PAUO'
p6255
(g3417
g32
tp6256
sS'KGRE'
p6257
(g38
g7
tp6258
sS'XARS'
p6259
(g264
g7
tp6260
sS'KWRB'
p6261
(g53
g17
tp6262
sS'KWRL'
p6263
(g493
g236
tp6264
sS'KWRI'
p6265
(g669
g17
tp6266
sS'KTPH'
p6267
(g76
g80
tp6268
sS'KB21'
p6269
(g489
g17
tp6270
sS'KTPL'
p6271
(g142
g7
tp6272
sS'KB23'
p6273
(g298
g80
tp6274
sS'KTPA'
p6275
(g229
g17
tp6276
sS'KTPF'
p6277
(g229
g17
tp6278
sS'KIPL'
p6279
(g1074
g185
tp6280
sS'QHSS'
p6281
(g10
g7
tp6282
sS'KIPN'
p6283
(g220
g7
tp6284
sS'KENW'
p6285
(g38
g7
tp6286
sS'QJCI'
p6287
(g63
g7
tp6288
sS'KIPJ'
p6289
(g13
g17
tp6290
sS'QCBI'
p6291
(g20
g7
tp6292
sS'KRLD'
p6293
(g486
g80
tp6294
sS'KARR'
p6295
(g682
g7
tp6296
sS'KVJI'
p6297
(g229
g17
tp6298
sS'XVP1'
p6299
(g264
g7
tp6300
sS'KARV'
p6301
(g38
g7
tp6302
sS'KFFX'
p6303
(g376
g137
tp6304
sS'KART'
p6305
(g310
g17
tp6306
sS'KFFZ'
p6307
(g178
g50
tp6308
sS'KFFT'
p6309
(g35
g17
tp6310
sS'KLRU'
p6311
(g532
g236
tp6312
sS'KHVN'
p6313
(g669
g17
tp6314
sS'KARB'
p6315
(g245
g137
tp6316
sS'KFFL'
p6317
(g163
g7
tp6318
sS'KFFO'
p6319
(g35
g17
tp6320
sS'KARA'
p6321
(g163
g7
tp6322
sS'KARG'
p6323
(g203
g7
tp6324
sS'K5SM'
p6325
(g493
g236
tp6326
sS'KFFA'
p6327
(g120
g17
tp6328
sS'KFFC'
p6329
(g35
g17
tp6330
sS'KJDN'
p6331
(g532
g236
tp6332
sS'KDVO'
p6333
(g106
g80
tp6334
sS'KDVN'
p6335
(g203
g7
tp6336
sS'KDVL'
p6337
(g191
g7
tp6338
sS'KDVK'
p6339
(g35
g17
tp6340
sS'KBVS'
p6341
(g106
g80
tp6342
sS'KBVR'
p6343
(g810
g236
tp6344
sS'KBVU'
p6345
(g410
g50
tp6346
sS'KBVI'
p6347
(g71
g17
tp6348
sS'KF46'
p6349
(g173
g7
tp6350
sS'KF44'
p6351
(g41
g7
tp6352
sS'KBVO'
p6353
(g173
g7
tp6354
sS'KBVN'
p6355
(g191
g7
tp6356
sS'KDVT'
p6357
(g46
g50
tp6358
sS'KBVE'
p6359
(g38
g7
tp6360
sS'KBVD'
p6361
(g271
g236
tp6362
sS'KDVP'
p6363
(g41
g7
tp6364
sS'KBEL'
p6365
(g291
g236
tp6366
sS'KHRT'
p6367
(g35
g17
tp6368
sS'XOTT'
p6369
(g2
g7
tp6370
sS'KJDD'
p6371
(g41
g7
tp6372
sS'KGRD'
p6373
(g229
g17
tp6374
sS'PAKK'
p6375
(g2282
g102
tp6376
sS'KGRF'
p6377
(g965
g523
tp6378
sS'KK88'
p6379
(g41
g7
tp6380
sS'KGRB'
p6381
(g682
g7
tp6382
sS'KGRM'
p6383
(g2
g7
tp6384
sS'KGRN'
p6385
(g1025
g236
tp6386
sS'KGRI'
p6387
(g191
g7
tp6388
sS'KGRK'
p6389
(g142
g7
tp6390
sS'K6E5'
p6391
(g142
g7
tp6392
sS'KW78'
p6393
(g85
g17
tp6394
sS'KGRR'
p6395
(g376
g137
tp6396
sS'KI23'
p6397
(g53
g17
tp6398
sS'QOSI'
p6399
(g63
g7
tp6400
sS'XNH1'
p6401
(g264
g7
tp6402
sS'KGRY'
p6403
Ns.