(lp0
Vprev_primary_swell_period
p1
aVprimary_swell_direction
p2
aVterse_phrase
p3
aVprev_water_temp
p4
aVprimary_swell_period
p5
aVprimary_wave_height
p6
aVprev_secondary_swell_height
p7
aVprimary_swell_height
p8
aVprev_secondary_swell_direction
p9
aVprev_primary_swell_direction
p10
aVprev_class
p11
aVprev_primary_swell_height
p12
aVqualifier_svrty
p13
aVprimary_wave_period
p14
aVqualifier
p15
aVblunt_phrase
p16
aVwater_temp
p17
aVprev_qualifier_svrty
p18
aVprev_terse_phrase
p19
aVprev_primary_wave_period
p20
aVsecondary_swell_height
p21
aVprev_blunt_phrase
p22
aVprev_primary_wave_height
p23
aVprev_snow_hrly
p24
aVclass
p25
aVsecondary_swell_period
p26
aVprev_qualifier
p27
aVprev_secondary_swell_period
p28
aVsnow_hrly
p29
aVsecondary_swell_direction
p30
a.