(dp0
V19281661035
p1
(lp2
I1
aV261
p3
ag1
aVc6d4a2e4dd
p4
asV19162955583
p5
(lp6
I4
aV3727
p7
ag5
aV5bcefa2cf8
p8
asV16108891473
p9
(lp10
I9
aV8618
p11
ag9
aVdb09648b4a
p12
asV34440831393
p13
(lp14
I5
aV4243
p15
ag13
aV89b4c502ee
p16
asV14216820768
p17
(lp18
I4
aV3837
p19
ag17
aV9075bdccba
p20
asV34595727991
p21
(lp22
I5
aV4178
p23
ag21
aVd926a0b793
p24
asV14357621899
p25
(lp26
I6
aV5559
p27
ag25
aVae63620228
p28
asV8499472514
p29
(lp30
I9
aV8092
p31
ag29
aVb4c2a4f16f
p32
asV35084501382
p33
(lp34
I5
aV4267
p35
ag33
aVba3543d6be
p36
asV25444295230
p37
(lp38
I2
aV1542
p39
ag37
aV13c3bf186c
p40
asV9183148588
p41
(lp42
I3
aV2835
p43
ag41
aV4f138e218f
p44
asV33936086665
p45
(lp46
I3
aV2825
p47
ag45
aV1876d25287
p48
asV19597110039
p49
(lp50
I1
aV513
p51
ag49
aVb7827dc1e3
p52
asV14308370297
p53
(lp54
I4
aV3866
p55
ag53
aV90cc887745
p56
asV9249886300
p57
(lp58
I4
aV3741
p59
ag57
aV00a1425460
p60
asV14302481081
p61
(lp62
I6
aV5274
p63
ag61
aV1d929e0804
p64
asV9053703458
p65
(lp66
I6
aV5466
p67
ag65
aV559d5595d0
p68
asV19247588532
p69
(lp70
I1
aV317
p71
ag69
aV2d16a98ce2
p72
asV18633761193
p73
(lp74
I4
aV3784
p75
ag73
aV5e51447385
p76
asV16849689589
p77
(lp78
I9
aV8745
p79
ag77
aV16ef3d7fae
p80
asV19058270979
p81
(lp82
I1
aV451
p83
ag81
aV3a0d38676f
p84
asV19052436188
p85
(lp86
I4
aV3702
p87
ag85
aV6d71de13d7
p88
asV12110618524
p89
(lp90
I8
aV7416
p91
ag89
aVc3820ef43b
p92
asV34742817143
p93
(lp94
I5
aV4238
p95
ag93
aV142dee35ea
p96
asV12140552194
p97
(lp98
I6
aV5548
p99
ag97
aVdefa72f93e
p100
asV8139894749
p101
(lp102
I9
aV8043
p103
ag101
aVb58df2f04e
p104
asV8656629024
p105
(lp106
I9
aV8114
p107
ag105
aV1240b85b6b
p108
asV18896919458
p109
(lp110
I4
aV3870
p111
ag109
aV9a4cfaed6d
p112
asV9249855026
p113
(lp114
I8
aV7291
p115
ag113
aVbcbcac692e
p116
asV13478021375
p117
(lp118
I3
aV2880
p119
ag117
aVa20960626e
p120
asV16728842135
p121
(lp122
I9
aV8618
p123
ag121
aVabe6a4e011
p124
asV19241252152
p125
(lp126
I4
aV3931
p127
ag125
aVd4eaf07783
p128
asV19240018025
p129
(lp130
I1
aV429
p131
ag129
aV6b185d8450
p132
asV14307871419
p133
(lp134
I4
aV3880
p135
ag133
aVdf872e8e5f
p136
asV19653453499
p137
(lp138
I1
aV383
p139
ag137
aVf9063a1be9
p140
asV9119840750
p141
(lp142
I8
aV7419
p143
ag141
aVf1dc073097
p144
asV14483566763
p145
(lp146
I3
aV2919
p147
ag145
aVb5b9acc27c
p148
asV14514665913
p149
(lp150
I4
aV3847
p151
ag149
aV51687e65fa
p152
asV20956127595
p153
(lp154
I6
aV5815
p155
ag153
aV8f9341d745
p156
asV19056818740
p157
(lp158
I1
aV453
p159
ag157
aV542758546a
p160
asV24980609943
p161
(lp162
I2
aV1547
p163
ag161
aV02cb535aa4
p164
asV19256640721
p165
(lp166
I1
aV336
p167
ag165
aVd723e7e39f
p168
asV9249856284
p169
(lp170
I8
aV7442
p171
ag169
aV88e9b0aaaa
p172
asV16287895353
p173
(lp174
I8
aV7584
p175
ag173
aV202863a8a9
p176
asV17983814804
p177
(lp178
I1
aV339
p179
ag177
aV168ea45dfc
p180
asV33669365845
p181
(lp182
I4
aV3788
p183
ag181
aV3b3009bcec
p184
asV19063536688
p185
(lp186
I1
aV487
p187
ag185
aVbab0fed6a0
p188
asV14167557891
p189
(lp190
I8
aV7399
p191
ag189
aVecf41638e3
p192
asV18619451613
p193
(lp194
I4
aV3922
p195
ag193
aV2e7d0a4b9f
p196
asV32582460425
p197
(lp198
I1
aV333
p199
ag197
aV38de5eca60
p200
asV9053587194
p201
(lp202
I6
aV5451
p203
ag201
aV51e40a1fbd
p204
asV14308099148
p205
(lp206
I4
aV3836
p207
ag205
aV82468ddf67
p208
asV24393329333
p209
(lp210
I2
aV1585
p211
ag209
aVd9b109dc90
p212
asV19844698091
p213
(lp214
I1
aV324
p215
ag213
aV1e0cdfdbbf
p216
asV10847518573
p217
(lp218
I4
aV3736
p219
ag217
aV2f36c3106a
p220
asV19058277829
p221
(lp222
I4
aV3745
p223
ag221
aV17c5dea05e
p224
asV19056806800
p225
(lp226
I1
aV374
p227
ag225
aVa6af93346c
p228
asV27275490094
p229
(lp230
I8
aV7715
p231
ag229
aV71a855bde1
p232
asV9247042645
p233
(lp234
I6
aV5509
p235
ag233
aVc8495ecc90
p236
asV8117295084
p237
(lp238
I9
aV8474
p239
ag237
aV50654f9a5c
p240
asV14308087577
p241
(lp242
I3
aV2936
p243
ag241
aV2aed4752d7
p244
asV35529547516
p245
(lp246
I5
aV4254
p247
ag245
aV5147b0687f
p248
asV14565087631
p249
(lp250
I6
aV5566
p251
ag249
aV15d8c77636
p252
asV14403445385
p253
(lp254
I4
aV3863
p255
ag253
aV31eef7c126
p256
asV24872087492
p257
(lp258
I2
aV1542
p259
ag257
aV09ab3fbb6b
p260
asV25390312891
p261
(lp262
I2
aV1650
p263
ag261
aV9b62a7a36b
p264
asV16108883103
p265
(lp266
I9
aV8609
p267
ag265
aVcd833cab2c
p268
asV29745856546
p269
(lp270
I9
aV8137
p271
ag269
aV799047c6d2
p272
asV19238487542
p273
(lp274
I1
aV502
p275
ag273
aV13b3859083
p276
asV26661224156
p277
(lp278
I2
aV1453
p279
ag277
aVd591068d19
p280
asV18634003553
p281
(lp282
I4
aV3810
p283
ag281
aV1d53821733
p284
asV33628351256
p285
(lp286
I3
aV2925
p287
ag285
aV7cfdc2f61c
p288
asV8234698575
p289
(lp290
I9
aV8348
p291
ag289
aV876d5a65d0
p292
asV26912476201
p293
(lp294
I8
aV7524
p295
ag293
aV41a5f9fbf9
p296
asV18623857443
p297
(lp298
I1
aV552
p299
ag297
aVe6c99cc86b
p300
asV11587795376
p301
(lp302
I8
aV7440
p303
ag301
aVbd1331e232
p304
asV18896843740
p305
(lp306
I4
aV3890
p307
ag305
aV4b9955586e
p308
asV14433726703
p309
(lp310
I3
aV2916
p311
ag309
aV2a5225b661
p312
asV32574733831
p313
(lp314
I1
aV779
p315
ag313
aV8c96e10ab9
p316
asV16727621191
p317
(lp318
I9
aV8667
p319
ag317
aVa6805dd12a
p320
asV27894842806
p321
(lp322
I8
aV7261
p323
ag321
aVf3a3d5d903
p324
asV10701907644
p325
(lp326
I3
aV2847
p327
ag325
aV254af1fd97
p328
asV16727613631
p329
(lp330
I9
aV8623
p331
ag329
aVac98351727
p332
asV8860396246
p333
(lp334
I8
aV7320
p335
ag333
aVa730fd5060
p336
asV19056819720
p337
(lp338
I1
aV488
p339
ag337
aVd9d72e6375
p340
asV9178591989
p341
(lp342
I8
aV7319
p343
ag341
aV8d295f1735
p344
asV21525037884
p345
(lp346
I6
aV5715
p347
ag345
aVde667468df
p348
asV8532844442
p349
(lp350
I9
aV8516
p351
ag349
aV81e85afa6f
p352
asV18623854363
p353
(lp354
I4
aV3914
p355
ag353
aVcd8443ee16
p356
asV8104693095
p357
(lp358
I9
aV8465
p359
ag357
aVba23273e82
p360
asV23830738476
p361
(lp362
I1
aV676
p363
ag361
aV83144e71d8
p364
asV14514593093
p365
(lp366
I3
aV2925
p367
ag365
aV48fcecdd57
p368
asV19595827208
p369
(lp370
I4
aV3708
p371
ag369
aV977529e170
p372
asV11675214564
p373
(lp374
I4
aV3751
p375
ag373
aV717513507d
p376
asV18665203574
p377
(lp378
I1
aV533
p379
ag377
aVe8030f75fb
p380
asV25990329961
p381
(lp382
I2
aV1491
p383
ag381
aV6e8635a197
p384
asV8235754826
p385
(lp386
I9
aV8346
p387
ag385
aV7526e27317
p388
asV9820702205
p389
(lp390
I8
aV7357
p391
ag389
aV68938fbd15
p392
asV19058272119
p393
(lp394
I1
aV377
p395
ag393
aVcaf1dd49bc
p396
asV19063143690
p397
(lp398
I1
aV426
p399
ag397
aVf17e812d5c
p400
asV14475676706
p401
(lp402
I3
aV2939
p403
ag401
aVfc6641c32b
p404
asV14132159081
p405
(lp406
I8
aV7438
p407
ag405
aVc4673b159c
p408
asV33905784110
p409
(lp410
I5
aV4175
p411
ag409
aVcfe042a5de
p412
asV14471275277
p413
(lp414
I4
aV3898
p415
ag413
aV8caa25f452
p416
asV19270489362
p417
(lp418
I1
aV476
p419
ag417
aV1ca2d04922
p420
asV18623858713
p421
(lp422
I1
aV393
p423
ag421
aVa92b7faa28
p424
asV19249462102
p425
(lp426
I4
aV3725
p427
ag425
aVe78965c321
p428
asV9180816671
p429
(lp430
I6
aV5519
p431
ag429
aVdd8b945bd7
p432
asV14238320760
p433
(lp434
I3
aV2913
p435
ag433
aVbba7093a8e
p436
asV26267681531
p437
(lp438
I2
aV1497
p439
ag437
aVe5d64bcd1c
p440
asV14462047172
p441
(lp442
I6
aV5485
p443
ag441
aVc17967c3d4
p444
asV14514506863
p445
(lp446
I3
aV2912
p447
ag445
aV06bee737eb
p448
asV27786201824
p449
(lp450
I9
aV8632
p451
ag449
aVd3eb2b17cb
p452
asV28369587776
p453
(lp454
I9
aV8584
p455
ag453
aV78bd297436
p456
asV9249820550
p457
(lp458
I6
aV5498
p459
ag457
aV53f6ed2999
p460
asV19253792725
p461
(lp462
I4
aV3873
p463
ag461
aVaa92ece5cf
p464
asV15654854052
p465
(lp466
I6
aV5602
p467
ag465
aVf69688f9de
p468
asV34289578365
p469
(lp470
I3
aV2949
p471
ag469
aV0c86f18b59
p472
asV10500468474
p473
(lp474
I6
aV5519
p475
ag473
aVe5235b9678
p476
asV19084604855
p477
(lp478
I1
aV284
p479
ag477
aV5249782a9d
p480
asV28546945695
p481
(lp482
I9
aV8787
p483
ag481
aV4beb124c3c
p484
asV30280495663
p485
(lp486
I6
aV5548
p487
ag485
aV845fd51a57
p488
asV16108891803
p489
(lp490
I9
aV8666
p491
ag489
aVe2636d756f
p492
asV18619449453
p493
(lp494
I1
aV257
p495
ag493
aV7e6542249c
p496
asV14520807396
p497
(lp498
I6
aV5595
p499
ag497
aV077978cb06
p500
asV14129994567
p501
(lp502
I3
aV2905
p503
ag501
aV5328f8cd8b
p504
asV19058274089
p505
(lp506
I4
aV3806
p507
ag505
aVfca6a12ca0
p508
asV9170645645
p509
(lp510
I4
aV3711
p511
ag509
aVb34d2787e6
p512
asV34435391016
p513
(lp514
I5
aV4169
p515
ag513
aVcbd8135b3e
p516
asV25146336204
p517
(lp518
I2
aV1524
p519
ag517
aVf4508b73ff
p520
asV9249865656
p521
(lp522
I4
aV3764
p523
ag521
aV854d4f1381
p524
asV8660094392
p525
(lp526
I9
aV8115
p527
ag525
aV692f7e01d4
p528
asV8234687709
p529
(lp530
I9
aV8210
p531
ag529
aV9c32844fe3
p532
asV13901872776
p533
(lp534
I8
aV7391
p535
ag533
aVcd10ec9db5
p536
asV10046962944
p537
(lp538
I6
aV5484
p539
ag537
aV7648a5c6d8
p540
asV8235776354
p541
(lp542
I9
aV8348
p543
ag541
aV29f6fe4f36
p544
asV14216820348
p545
(lp546
I4
aV3835
p547
ag545
aV138d4b402d
p548
asV16908331515
p549
(lp550
I8
aV7595
p551
ag549
aV6476a8e1b5
p552
asV14146702352
p553
(lp554
I6
aV5484
p555
ag553
aVbfc1d4ab9e
p556
asV14471368266
p557
(lp558
I6
aV5564
p559
ag557
aV9ceb8ce666
p560
asV8439003611
p561
(lp562
I9
aV8073
p563
ag561
aV878f1712cd
p564
asV18623853533
p565
(lp566
I1
aV409
p567
ag565
aV6444a1e5fc
p568
asV14536864711
p569
(lp570
I4
aV3855
p571
ag569
aV9364d9e64e
p572
asV9130822643
p573
(lp574
I6
aV5327
p575
ag573
aVf09fecf670
p576
asV19126387986
p577
(lp578
I1
aV382
p579
ag577
aVd77622a953
p580
asV19053892299
p581
(lp582
I1
aV340
p583
ag581
aV8d825f4bc4
p584
asV26026200712
p585
(lp586
I2
aV1443
p587
ag585
aVded3b015c6
p588
asV9820718656
p589
(lp590
I6
aV5339
p591
ag589
aVae84ca7a44
p592
asV9249836764
p593
(lp594
I6
aV5348
p595
ag593
aV348bc8e6fa
p596
asV14238322748
p597
(lp598
I4
aV3912
p599
ag597
aVca18466c69
p600
asV14483567203
p601
(lp602
I6
aV5545
p603
ag601
aVb4b5ba953e
p604
asV17054933417
p605
(lp606
I8
aV7631
p607
ag605
aV32ac06f2d2
p608
asV19228025141
p609
(lp610
I1
aV435
p611
ag609
aV18b482c7f3
p612
asV25075016923
p613
(lp614
I2
aV1443
p615
ag613
aVde593f4796
p616
asV14727680271
p617
(lp618
I6
aV5559
p619
ag617
aVd9efcfffdc
p620
asV8235760580
p621
(lp622
I9
aV8481
p623
ag621
aV61c6cdea86
p624
asV15654018675
p625
(lp626
I8
aV7475
p627
ag625
aV2c1cc6cd8b
p628
asV19058280619
p629
(lp630
I1
aV344
p631
ag629
aV73b20e1c8d
p632
asV14402100162
p633
(lp634
I4
aV3876
p635
ag633
aV1814626e4a
p636
asV8656623918
p637
(lp638
I9
aV8111
p639
ag637
aV57333997e1
p640
asV27029517784
p641
(lp642
I8
aV7068
p643
ag641
aVf1cd5e5839
p644
asV8234705299
p645
(lp646
I9
aV8350
p647
ag645
aV52c4de8d08
p648
asV14307750600
p649
(lp650
I4
aV3881
p651
ag649
aV6a9e5685bd
p652
asV8736087055
p653
(lp654
I8
aV7286
p655
ag653
aVae12b26f88
p656
asV14542693102
p657
(lp658
I3
aV2931
p659
ag657
aVfaaa5341fe
p660
asV14514666533
p661
(lp662
I4
aV3841
p663
ag661
aVe8fc35bf5b
p664
asV8235752572
p665
(lp666
I9
aV8067
p667
ag665
aVdb7e9bdfca
p668
asV13478226893
p669
(lp670
I8
aV7395
p671
ag669
aV0b9442e105
p672
asV9273772006
p673
(lp674
I4
aV3719
p675
ag673
aVbe6f9b65ce
p676
asV8234699175
p677
(lp678
I9
aV8060
p679
ag677
aV0375e06b2a
p680
asV9215836235
p681
(lp682
I3
aV2821
p683
ag681
aVec2d00b1d6
p684
asV34132167702
p685
(lp686
I3
aV2878
p687
ag685
aVda4a259732
p688
asV19064118229
p689
(lp690
I1
aV271
p691
ag689
aVca5a7e89ae
p692
asV19084588105
p693
(lp694
I1
aV324
p695
ag693
aV85a151cbc8
p696
asV19218447712
p697
(lp698
I1
aV546
p699
ag697
aV56280d3ab2
p700
asV28324330881
p701
(lp702
I9
aV8815
p703
ag701
aVa6da2f2f71
p704
asV8104706334
p705
(lp706
I9
aV8184
p707
ag705
aV0651f65dc1
p708
asV14493495712
p709
(lp710
I4
aV3883
p711
ag709
aVfb37dd3afc
p712
asV15338717682
p713
(lp714
I4
aV3903
p715
ag713
aVc416e7922f
p716
asV32533032473
p717
(lp718
I4
aV3867
p719
ag717
aV64f61fb8de
p720
asV14565061891
p721
(lp722
I3
aV2898
p723
ag721
aV4c6d0b8bc8
p724
asV20726928042
p725
(lp726
I1
aV694
p727
ag725
aVdb162de5d9
p728
asV14308388877
p729
(lp730
I4
aV3872
p731
ag729
aV6d04023072
p732
asV35386100121
p733
(lp734
I5
aV4229
p735
ag733
aV3ed50d6212
p736
asV14238322630
p737
(lp738
I4
aV3923
p739
ag737
aV8082507dec
p740
asV27850666841
p741
(lp742
I8
aV7550
p743
ag741
aV63c099d559
p744
asV16422432370
p745
(lp746
I9
aV8585
p747
ag745
aV675324c2ed
p748
asV14307749750
p749
(lp750
I6
aV5194
p751
ag749
aVb2307031d3
p752
asV19255592836
p753
(lp754
I4
aV3915
p755
ag753
aV0cbf2693ca
p756
asV19281663765
p757
(lp758
I1
aV302
p759
ag757
aV1396a1717c
p760
asV29761458280
p761
(lp762
I9
aV8366
p763
ag761
aVca36843cb3
p764
asV9180890699
p765
(lp766
I6
aV5519
p767
ag765
aV2c76b73430
p768
asV19217918686
p769
(lp770
I1
aV300
p771
ag769
aVf9967ac95f
p772
asV14440300646
p773
(lp774
I3
aV2913
p775
ag773
aVc55e495eb2
p776
asV19065068660
p777
(lp778
I4
aV3956
p779
ag777
aVb29559957d
p780
asV14307793768
p781
(lp782
I4
aV3879
p783
ag781
aVccf34b3966
p784
asV9990581473
p785
(lp786
I3
aV2876
p787
ag785
aV691fa6079a
p788
asV11893397964
p789
(lp790
I8
aV7329
p791
ag789
aVbf761fe4c0
p792
asV16423874688
p793
(lp794
I9
aV8587
p795
ag793
aV1aeeb55ffa
p796
asV8234692959
p797
(lp798
I9
aV8070
p799
ag797
aVdcb5e73224
p800
asV33447925574
p801
(lp802
I3
aV2860
p803
ag801
aV50ed5a9c3c
p804
asV24858790586
p805
(lp806
I2
aV1646
p807
ag805
aV3ba86fa5f5
p808
asV8104694329
p809
(lp810
I9
aV8047
p811
ag809
aV373f8ef20f
p812
asV16729534977
p813
(lp814
I9
aV8745
p815
ag813
aV5daed8e030
p816
asV16585122356
p817
(lp818
I9
aV8652
p819
ag817
aVe6cf85187f
p820
asV8095391445
p821
(lp822
I9
aV8051
p823
ag821
aV2f73d55e8b
p824
asV19056807640
p825
(lp826
I1
aV491
p827
ag825
aVefaa6f14d3
p828
asV8453798732
p829
(lp830
I9
aV8248
p831
ag829
aVed809fa330
p832
asV18621955184
p833
(lp834
I1
aV289
p835
ag833
aV7acbaec0d4
p836
asV8650655954
p837
(lp838
I9
aV8246
p839
ag837
aV00ec9d04d2
p840
asV30093762321
p841
(lp842
I6
aV5560
p843
ag841
aV070e55fc7a
p844
asV10048682606
p845
(lp846
I8
aV7424
p847
ag845
aVba69ea6d98
p848
asV8591564036
p849
(lp850
I9
aV8104
p851
ag849
aV59d06f817f
p852
asV19244175272
p853
(lp854
I1
aV504
p855
ag853
aV657cc521ab
p856
asV14539272582
p857
(lp858
I3
aV2907
p859
ag857
aV62649dc270
p860
asV14308233768
p861
(lp862
I4
aV3905
p863
ag861
aV0ec200b569
p864
asV18818449500
p865
(lp866
I1
aV471
p867
ag865
aV1e81d4fd78
p868
asV8538364946
p869
(lp870
I9
aV8243
p871
ag869
aVca27b21ebf
p872
asV11821007895
p873
(lp874
I3
aV2885
p875
ag873
aVae37ec6f92
p876
asV25309727512
p877
(lp878
I2
aV1647
p879
ag877
aV72e2c21485
p880
asV16106517504
p881
(lp882
I9
aV8609
p883
ag881
aV5987c73c3f
p884
asV19065809550
p885
(lp886
I1
aV425
p887
ag885
aV09f805b021
p888
asV34417698536
p889
(lp890
I5
aV4158
p891
ag889
aV6cf3bc2962
p892
asV8653559683
p893
(lp894
I9
aV8104
p895
ag893
aV08aeb4d9db
p896
asV33518371660
p897
(lp898
I4
aV3910
p899
ag897
aV267ffaa300
p900
asV19056837828
p901
(lp902
I1
aV398
p903
ag901
aVc89304df57
p904
asV9180735425
p905
(lp906
I4
aV3774
p907
ag905
aVde145a043a
p908
asV23176102163
p909
(lp910
I1
aV625
p911
ag909
aV69262da83a
p912
asV16316847393
p913
(lp914
I9
aV8739
p915
ag913
aV007b76f3ca
p916
asV14307751760
p917
(lp918
I3
aV2908
p919
ag917
aV78480e4246
p920
asV8146610369
p921
(lp922
I9
aV8047
p923
ag921
aV5901e25178
p924
asV19248306892
p925
(lp926
I1
aV492
p927
ag925
aV20efe633f3
p928
asV14358830560
p929
(lp930
I4
aV3907
p931
ag929
aVb5e3053127
p932
asV14768034380
p933
(lp934
I6
aV5577
p935
ag933
aVf986402bfa
p936
asV19305616961
p937
(lp938
I1
aV541
p939
ag937
aV1f05ef35af
p940
asV14276794650
p941
(lp942
I4
aV3875
p943
ag941
aV62967ff563
p944
asV15978797282
p945
(lp946
I8
aV7535
p947
ag945
aV4382c4327a
p948
asV33447919184
p949
(lp950
I3
aV2885
p951
ag949
aV40e10f8e3e
p952
asV16674122134
p953
(lp954
I8
aV7675
p955
ag953
aV559ef03176
p956
asV19067021709
p957
(lp958
I1
aV436
p959
ag957
aV73f4f9fe79
p960
asV8656617780
p961
(lp962
I9
aV8121
p963
ag961
aVab1c5e09b4
p964
asV19100216000
p965
(lp966
I4
aV3790
p967
ag965
aV18c76dc8b7
p968
asV8658998129
p969
(lp970
I9
aV8110
p971
ag969
aV6d60b8eaa7
p972
asV15891907024
p973
(lp974
I8
aV7281
p975
ag973
aV90af809afe
p976
asV34132168502
p977
(lp978
I5
aV4159
p979
ag977
aVd5bab29754
p980
asV9820777653
p981
(lp982
I8
aV7340
p983
ag981
aV85c870d6c8
p984
asV8235753314
p985
(lp986
I9
aV8206
p987
ag985
aVf0712ea3ec
p988
asV9247039875
p989
(lp990
I8
aV7436
p991
ag989
aV21ffef2217
p992
asV14424921485
p993
(lp994
I4
aV3920
p995
ag993
aVb3e31b5319
p996
asV8234694713
p997
(lp998
I9
aV8060
p999
ag997
aVcc4f885aa9
p1000
asV27831632436
p1001
(lp1002
I8
aV7110
p1003
ag1001
aVaaf33ccd2a
p1004
asV18623865763
p1005
(lp1006
I1
aV542
p1007
ag1005
aVc359ca3ec9
p1008
asV18898089891
p1009
(lp1010
I6
aV5477
p1011
ag1009
aVf2b598bd05
p1012
asV20504871203
p1013
(lp1014
I1
aV615
p1015
ag1013
aVf36973ea39
p1016
asV9626607910
p1017
(lp1018
I4
aV3737
p1019
ag1017
aV1fe9d189a7
p1020
asV8235759688
p1021
(lp1022
I9
aV8065
p1023
ag1021
aVf21b71dd4e
p1024
asV14543555500
p1025
(lp1026
I4
aV3837
p1027
ag1025
aVdba2c0bfb8
p1028
asV19078932782
p1029
(lp1030
I1
aV288
p1031
ag1029
aV5884482bb0
p1032
asV8104705892
p1033
(lp1034
I9
aV8328
p1035
ag1033
aV8604239369
p1036
asV19125322930
p1037
(lp1038
I1
aV337
p1039
ag1037
aV63a96c419f
p1040
asV15409385527
p1041
(lp1042
I6
aV5609
p1043
ag1041
aV5687de343b
p1044
asV8117290498
p1045
(lp1046
I9
aV8476
p1047
ag1045
aVdc0c0b2b25
p1048
asV9117612259
p1049
(lp1050
I8
aV7368
p1051
ag1049
aV40411c9724
p1052
asV17135591555
p1053
(lp1054
I8
aV7693
p1055
ag1053
aV67a390db40
p1056
asV14509526280
p1057
(lp1058
I4
aV3885
p1059
ag1057
aV69be76bfe3
p1060
asV11741568145
p1061
(lp1062
I8
aV7360
p1063
ag1061
aV18e5205024
p1064
asV13917951703
p1065
(lp1066
I8
aV7122
p1067
ag1065
aV0c55713b9f
p1068
asV19281661485
p1069
(lp1070
I1
aV499
p1071
ag1069
aV98b802ea13
p1072
asV31197566675
p1073
(lp1074
I6
aV5464
p1075
ag1073
aV4899673a40
p1076
asV14308090699
p1077
(lp1078
I4
aV3851
p1079
ag1077
aV1391c8e52d
p1080
asV19595849080
p1081
(lp1082
I4
aV3695
p1083
ag1081
aV2a304f6292
p1084
asV27831633356
p1085
(lp1086
I8
aV7502
p1087
ag1085
aV94f57c2ec1
p1088
asV33134306503
p1089
(lp1090
I3
aV2874
p1091
ag1089
aV7e374a19e9
p1092
asV19094080978
p1093
(lp1094
I1
aV371
p1095
ag1093
aV9c5f1f0a25
p1096
asV16521551457
p1097
(lp1098
I9
aV8660
p1099
ag1097
aV3ef8fc7446
p1100
asV19036751348
p1101
(lp1102
I4
aV3860
p1103
ag1101
aVdc9e4411ed
p1104
asV33447815494
p1105
(lp1106
I3
aV2868
p1107
ag1105
aV1c764faec1
p1108
asV33479318683
p1109
(lp1110
I3
aV2883
p1111
ag1109
aV60033f0021
p1112
asV15922741639
p1113
(lp1114
I8
aV7498
p1115
ag1113
aV37931c61e3
p1116
asV26217570731
p1117
(lp1118
I2
aV1496
p1119
ag1117
aV16ce5b1e61
p1120
asV19064182009
p1121
(lp1122
I1
aV486
p1123
ag1121
aVe0acdca8ce
p1124
asV8235750574
p1125
(lp1126
I9
aV8489
p1127
ag1125
aVc7b60dbf61
p1128
asV14734707622
p1129
(lp1130
I6
aV5579
p1131
ag1129
aV3d26ef5acd
p1132
asV15991262443
p1133
(lp1134
I9
aV8605
p1135
ag1133
aV614d297b6a
p1136
asV13919663254
p1137
(lp1138
I8
aV7052
p1139
ag1137
aV46ddb55f97
p1140
asV10108660204
p1141
(lp1142
I8
aV7446
p1143
ag1141
aVc27e291c06
p1144
asV9183212314
p1145
(lp1146
I3
aV2813
p1147
ag1145
aV6f1917a9b3
p1148
asV32293257346
p1149
(lp1150
I1
aV464
p1151
ag1149
aV57fa1b8973
p1152
asV16728840625
p1153
(lp1154
I9
aV8653
p1155
ag1153
aV2a0a531a41
p1156
asV34920909363
p1157
(lp1158
I5
aV4280
p1159
ag1157
aV80aebeed75
p1160
asV21071464423
p1161
(lp1162
I1
aV628
p1163
ag1161
aV0c0080824b
p1164
asV19218324196
p1165
(lp1166
I1
aV312
p1167
ag1165
aVbe50791c24
p1168
asV29095000273
p1169
(lp1170
I9
aV8322
p1171
ag1169
aV60d4c8892f
p1172
asV8235755500
p1173
(lp1174
I9
aV8200
p1175
ag1173
aV4c0c5f093c
p1176
asV8164569281
p1177
(lp1178
I8
aV7267
p1179
ag1177
aVb17e859cb9
p1180
asV35500403046
p1181
(lp1182
I5
aV4258
p1183
ag1181
aVe432a780a6
p1184
asV19244921082
p1185
(lp1186
I1
aV517
p1187
ag1185
aV007b06724d
p1188
asV30941515131
p1189
(lp1190
I6
aV5559
p1191
ag1189
aVf05bcaaef9
p1192
asV27761126824
p1193
(lp1194
I8
aV7623
p1195
ag1193
aV2335618a24
p1196
asV14493631302
p1197
(lp1198
I4
aV3896
p1199
ag1197
aV031008a0f9
p1200
asV14133138256
p1201
(lp1202
I3
aV2940
p1203
ag1201
aV480f95a547
p1204
asV18749904853
p1205
(lp1206
I1
aV485
p1207
ag1205
aVc4e958f03e
p1208
asV18729315691
p1209
(lp1210
I1
aV397
p1211
ag1209
aV177bd33ae6
p1212
asV19065831980
p1213
(lp1214
I1
aV402
p1215
ag1213
aV120165ccd2
p1216
asV18890052712
p1217
(lp1218
I1
aV379
p1219
ag1217
aVf2c056f90e
p1220
asV27275102356
p1221
(lp1222
I8
aV7641
p1223
ag1221
aVdd958a243d
p1224
asV9820688584
p1225
(lp1226
I4
aV3755
p1227
ag1225
aV60de38d38d
p1228
asV19225049756
p1229
(lp1230
I1
aV302
p1231
ag1229
aV6708e17e4e
p1232
asV8152384385
p1233
(lp1234
I8
aV7127
p1235
ag1233
aVaefd49cd6e
p1236
asV8235758364
p1237
(lp1238
I9
aV8482
p1239
ag1237
aVa93911d9d7
p1240
asV20768294628
p1241
(lp1242
I6
aV5780
p1243
ag1241
aV0f7278db1e
p1244
asV31308396566
p1245
(lp1246
I6
aV5656
p1247
ag1245
aV793014657a
p1248
asV33447811434
p1249
(lp1250
I3
aV2843
p1251
ag1249
aVa6c01c4405
p1252
asV16397099602
p1253
(lp1254
I8
aV7356
p1255
ag1253
aV9343eede89
p1256
asV8659000841
p1257
(lp1258
I9
aV8108
p1259
ag1257
aVde6665e2b8
p1260
asV14380314486
p1261
(lp1262
I4
aV3911
p1263
ag1261
aVf032278a37
p1264
asV34289573925
p1265
(lp1266
I5
aV4187
p1267
ag1265
aV4b2ffbfb17
p1268
asV19244289282
p1269
(lp1270
I1
aV476
p1271
ag1269
aV84c8a3f5a2
p1272
asV15468459150
p1273
(lp1274
I8
aV7480
p1275
ag1273
aVcea0fbc389
p1276
asV19056841168
p1277
(lp1278
I1
aV292
p1279
ag1277
aV39ebcde101
p1280
asV8168589820
p1281
(lp1282
I9
aV8340
p1283
ag1281
aVc20f4dc3ed
p1284
asV19056836318
p1285
(lp1286
I1
aV392
p1287
ag1285
aVd7727a2ca1
p1288
asV33447917804
p1289
(lp1290
I5
aV4163
p1291
ag1289
aV4500d8795f
p1292
asV19027846398
p1293
(lp1294
I1
aV554
p1295
ag1293
aV10e8da1fe7
p1296
asV8110668999
p1297
(lp1298
I9
aV8189
p1299
ag1297
aVeeb250ccf8
p1300
asV14401796456
p1301
(lp1302
I3
aV2932
p1303
ag1301
aV2e203bd903
p1304
asV8235745950
p1305
(lp1306
I9
aV8210
p1307
ag1305
aVc6c89f13d9
p1308
asV34248989876
p1309
(lp1310
I5
aV4157
p1311
ag1309
aV7d533612f6
p1312
asV14357423817
p1313
(lp1314
I6
aV5506
p1315
ag1313
aVf30fd01eb0
p1316
asV25867110485
p1317
(lp1318
I2
aV1709
p1319
ag1317
aV947aa1f027
p1320
asV19227661826
p1321
(lp1322
I1
aV356
p1323
ag1321
aVf2924d1ed4
p1324
asV19302489505
p1325
(lp1326
I1
aV398
p1327
ag1325
aVd4a56b5541
p1328
asV10048607184
p1329
(lp1330
I8
aV7304
p1331
ag1329
aV2681d52ab5
p1332
asV20240620845
p1333
(lp1334
I1
aV278
p1335
ag1333
aVddbeb0eca5
p1336
asV14568505196
p1337
(lp1338
I4
aV3841
p1339
ag1337
aVa83f637802
p1340
asV13902520898
p1341
(lp1342
I3
aV2918
p1343
ag1341
aVaa25ac9ba0
p1344
asV8315407681
p1345
(lp1346
I9
aV8219
p1347
ag1345
aVb91bdb6bda
p1348
asV9105294788
p1349
(lp1350
I6
aV5338
p1351
ag1349
aV17776e1c27
p1352
asV19597244789
p1353
(lp1354
I1
aV487
p1355
ag1353
aVfb5e84b136
p1356
asV14238270749
p1357
(lp1358
I4
aV3906
p1359
ag1357
aVfb6cbdfe53
p1360
asV34132172572
p1361
(lp1362
I3
aV2851
p1363
ag1361
aV1f9583598b
p1364
asV25429180795
p1365
(lp1366
I2
aV1692
p1367
ag1365
aVec9cca09c0
p1368
asV19244411995
p1369
(lp1370
I1
aV541
p1371
ag1369
aVf9f25c0f9e
p1372
asV9820717486
p1373
(lp1374
I4
aV3758
p1375
ag1373
aVee8427c4c4
p1376
asV12080007056
p1377
(lp1378
I6
aV5497
p1379
ag1377
aV7bffcc3d39
p1380
asV30457433825
p1381
(lp1382
I6
aV5811
p1383
ag1381
aV29fe02cf7a
p1384
asV14238320188
p1385
(lp1386
I6
aV5569
p1387
ag1385
aV53cabcdd97
p1388
asV33956709111
p1389
(lp1390
I3
aV2897
p1391
ag1389
aVc54ca35e32
p1392
asV12919914544
p1393
(lp1394
I3
aV2830
p1395
ag1393
aVbb01b224a1
p1396
asV19058273989
p1397
(lp1398
I1
aV285
p1399
ag1397
aVb48ce1c54c
p1400
asV14514508703
p1401
(lp1402
I6
aV5594
p1403
ag1401
aV7617f320fd
p1404
asV9247104921
p1405
(lp1406
I8
aV7302
p1407
ag1405
aV9579d24607
p1408
asV14538928012
p1409
(lp1410
I4
aV3874
p1411
ag1409
aV1524146f4a
p1412
asV8234710885
p1413
(lp1414
I9
aV8489
p1415
ag1413
aV19d671786a
p1416
asV14423784774
p1417
(lp1418
I4
aV3894
p1419
ag1417
aV97d6a50808
p1420
asV14461303692
p1421
(lp1422
I6
aV5542
p1423
ag1421
aV875cfe3ee9
p1424
asV19036738968
p1425
(lp1426
I1
aV435
p1427
ag1425
aV37df204d1b
p1428
asV19056809760
p1429
(lp1430
I1
aV481
p1431
ag1429
aV902f7c480f
p1432
asV8234700359
p1433
(lp1434
I9
aV8206
p1435
ag1433
aV6c3282b650
p1436
asV19247291172
p1437
(lp1438
I1
aV469
p1439
ag1437
aV49fe12e0ec
p1440
asV9820687814
p1441
(lp1442
I3
aV2876
p1443
ag1441
aV263ecf880b
p1444
asV19244409765
p1445
(lp1446
I1
aV536
p1447
ag1445
aV9386f1709d
p1448
asV19095553229
p1449
(lp1450
I1
aV323
p1451
ag1449
aV3159412460
p1452
asV16727766562
p1453
(lp1454
I9
aV8622
p1455
ag1453
aV595e7a6307
p1456
asV8654667782
p1457
(lp1458
I9
aV8251
p1459
ag1457
aV394551a8d1
p1460
asV19008516170
p1461
(lp1462
I1
aV332
p1463
ag1461
aV33a186d920
p1464
asV8467519956
p1465
(lp1466
I9
aV8529
p1467
ag1465
aV3e8ec935ef
p1468
asV30400970903
p1469
(lp1470
I6
aV5346
p1471
ag1469
aVe1f89f08de
p1472
asV9249884912
p1473
(lp1474
I6
aV5496
p1475
ag1473
aV7c64fb3d31
p1476
asV11675644536
p1477
(lp1478
I4
aV3706
p1479
ag1477
aV37abd9e5b4
p1480
asV16548567423
p1481
(lp1482
I8
aV7621
p1483
ag1481
aV102e5d6229
p1484
asV34527607144
p1485
(lp1486
I5
aV4198
p1487
ag1485
aV52b86fa697
p1488
asV14588557803
p1489
(lp1490
I6
aV5501
p1491
ag1489
aV55cc2f55e1
p1492
asV19218322596
p1493
(lp1494
I1
aV543
p1495
ag1493
aV1dc471b8b6
p1496
asV19162931773
p1497
(lp1498
I4
aV3773
p1499
ag1497
aVbdc111480f
p1500
asV18621954154
p1501
(lp1502
I1
aV372
p1503
ag1501
aV941796386f
p1504
asV34289491265
p1505
(lp1506
I3
aV2829
p1507
ag1505
aVfdc9b550a5
p1508
asV9439187284
p1509
(lp1510
I8
aV7388
p1511
ag1509
aV8db3a05334
p1512
asV32504141314
p1513
(lp1514
I3
aV2811
p1515
ag1513
aV05dc59e885
p1516
asV15033875013
p1517
(lp1518
I4
aV3954
p1519
ag1517
aVf71a62a217
p1520
asV10847521313
p1521
(lp1522
I8
aV7340
p1523
ag1521
aVd5a0f02cf6
p1524
asV14462046142
p1525
(lp1526
I4
aV3910
p1527
ag1525
aV4bc3a9b133
p1528
asV8234686963
p1529
(lp1530
I9
aV8487
p1531
ag1529
aVcfeb43ef1a
p1532
asV19234093902
p1533
(lp1534
I1
aV524
p1535
ag1533
aV8de928089d
p1536
asV13158691753
p1537
(lp1538
I4
aV3684
p1539
ag1537
aV1169446c26
p1540
asV14798920772
p1541
(lp1542
I6
aV5580
p1543
ag1541
aVb92af14ddf
p1544
asV12863353774
p1545
(lp1546
I3
aV2863
p1547
ag1545
aV9b759a01cd
p1548
asV26413547533
p1549
(lp1550
I8
aV7003
p1551
ag1549
aV2f71317f27
p1552
asV18659188824
p1553
(lp1554
I1
aV425
p1555
ag1553
aV2dbc2cc831
p1556
asV19215441305
p1557
(lp1558
I1
aV294
p1559
ag1557
aV305f41b04d
p1560
asV8234685917
p1561
(lp1562
I9
aV8348
p1563
ag1561
aVf2721c6e14
p1564
asV29504392104
p1565
(lp1566
I6
aV5505
p1567
ag1565
aV627b247f72
p1568
asV8138117570
p1569
(lp1570
I9
aV8049
p1571
ag1569
aV8ae7ef3c31
p1572
asV19036691910
p1573
(lp1574
I1
aV329
p1575
ag1573
aVa69365a07c
p1576
asV25690843184
p1577
(lp1578
I2
aV1659
p1579
ag1577
aV6c349007a8
p1580
asV19234095372
p1581
(lp1582
I1
aV278
p1583
ag1581
aV520abd03a3
p1584
asV29641157000
p1585
(lp1586
I9
aV8641
p1587
ag1585
aV74f9a27500
p1588
asV9180845813
p1589
(lp1590
I8
aV7312
p1591
ag1589
aV68e5629bd6
p1592
asV27869839996
p1593
(lp1594
I8
aV7310
p1595
ag1593
aVd940381d31
p1596
asV19036708250
p1597
(lp1598
I1
aV270
p1599
ag1597
aVc998a302e1
p1600
asV21795006679
p1601
(lp1602
I6
aV5802
p1603
ag1601
aVd72fa9a11a
p1604
asV9180774231
p1605
(lp1606
I4
aV3727
p1607
ag1605
aVea23591a70
p1608
asV16736282752
p1609
(lp1610
I9
aV8577
p1611
ag1609
aV593ec05320
p1612
asV14357426079
p1613
(lp1614
I4
aV3840
p1615
ag1613
aV6cd01e5c18
p1616
asV18903692979
p1617
(lp1618
I1
aV443
p1619
ag1617
aV9df99bde7b
p1620
asV13923724344
p1621
(lp1622
I8
aV7112
p1623
ag1621
aV1f1be22208
p1624
asV19162821643
p1625
(lp1626
I1
aV525
p1627
ag1625
aVf7ff57f433
p1628
asV8651385456
p1629
(lp1630
I9
aV8406
p1631
ag1629
aV9a934b07ce
p1632
asV26523204410
p1633
(lp1634
I8
aV7210
p1635
ag1633
aV89eae111b3
p1636
asV18361039253
p1637
(lp1638
I1
aV524
p1639
ag1637
aVaa6123f5a1
p1640
asV15380997813
p1641
(lp1642
I8
aV7479
p1643
ag1641
aVd9acf2ca73
p1644
asV14627163396
p1645
(lp1646
I6
aV5529
p1647
ag1645
aVf80f60bf0b
p1648
asV9103077713
p1649
(lp1650
I8
aV7337
p1651
ag1649
aV4d72540c4a
p1652
asV10500470064
p1653
(lp1654
I4
aV3683
p1655
ag1653
aVd10f9e82f2
p1656
asV19064666959
p1657
(lp1658
I1
aV388
p1659
ag1657
aV55bdfba7cf
p1660
asV19056841538
p1661
(lp1662
I1
aV367
p1663
ag1661
aVe43833dbe1
p1664
asV8234689789
p1665
(lp1666
I9
aV8199
p1667
ag1665
aVc48688e827
p1668
asV9820687174
p1669
(lp1670
I4
aV3766
p1671
ag1669
aV92db22f47b
p1672
asV34577328431
p1673
(lp1674
I5
aV4165
p1675
ag1673
aV9c42cb9800
p1676
asV19595700540
p1677
(lp1678
I1
aV419
p1679
ag1677
aV619b9c4be3
p1680
asV8234701089
p1681
(lp1682
I9
aV8202
p1683
ag1681
aV7ebd90e9c1
p1684
asV8235755972
p1685
(lp1686
I9
aV8069
p1687
ag1685
aV6a854d6f2a
p1688
asV27254285604
p1689
(lp1690
I8
aV7664
p1691
ag1689
aV1a813a3b7c
p1692
asV8234709535
p1693
(lp1694
I9
aV8342
p1695
ag1693
aV83c70fcdd9
p1696
asV19238479672
p1697
(lp1698
I1
aV308
p1699
ag1697
aV593a3cb002
p1700
asV8104693993
p1701
(lp1702
I9
aV8055
p1703
ag1701
aVbdc6406889
p1704
asV34158541691
p1705
(lp1706
I3
aV2866
p1707
ag1705
aV28730252c5
p1708
asV33479370303
p1709
(lp1710
I3
aV2812
p1711
ag1709
aVb74af732b8
p1712
asV33120617094
p1713
(lp1714
I3
aV2889
p1715
ag1713
aV673fed1a49
p1716
asV19008515250
p1717
(lp1718
I1
aV263
p1719
ag1717
aV928f1e92e0
p1720
asV9820702105
p1721
(lp1722
I8
aV7410
p1723
ag1721
aVfd31618ca9
p1724
asV35164816730
p1725
(lp1726
I5
aV4256
p1727
ag1725
aV2fa8085dae
p1728
asV9247065241
p1729
(lp1730
I4
aV3811
p1731
ag1729
aV2e9016cdd3
p1732
asV16542730269
p1733
(lp1734
I9
aV8615
p1735
ag1733
aVb0af5a6568
p1736
asV27348427330
p1737
(lp1738
I8
aV7107
p1739
ag1737
aV67b7d6e5a9
p1740
asV18621946294
p1741
(lp1742
I1
aV408
p1743
ag1741
aV03d69ee76b
p1744
asV23760372900
p1745
(lp1746
I6
aV5728
p1747
ag1745
aVbfa54971a0
p1748
asV19597114599
p1749
(lp1750
I1
aV414
p1751
ag1749
aVe5cc8a75d0
p1752
asV16610423002
p1753
(lp1754
I9
aV8613
p1755
ag1753
aV20b4536a5c
p1756
asV9050894893
p1757
(lp1758
I8
aV7397
p1759
ag1757
aV490975dee0
p1760
asV9449894414
p1761
(lp1762
I4
aV3777
p1763
ag1761
aV1fe5bd5e96
p1764
asV13972620741
p1765
(lp1766
I3
aV2904
p1767
ag1765
aVa3c8506d83
p1768
asV14649774175
p1769
(lp1770
I4
aV3841
p1771
ag1769
aV3d84064fef
p1772
asV33905652090
p1773
(lp1774
I3
aV2887
p1775
ag1773
aV7feb3cb94a
p1776
asV15178465853
p1777
(lp1778
I8
aV7540
p1779
ag1777
aV19fb6f37d4
p1780
asV33479373633
p1781
(lp1782
I3
aV2845
p1783
ag1781
aV1dd84cb01e
p1784
asV19218329656
p1785
(lp1786
I1
aV479
p1787
ag1785
aV2a22fbb5b8
p1788
asV14238321838
p1789
(lp1790
I3
aV2907
p1791
ag1789
aVdffd462f8c
p1792
asV14421150547
p1793
(lp1794
I6
aV5502
p1795
ag1793
aV6356880d18
p1796
asV9345735255
p1797
(lp1798
I8
aV7297
p1799
ag1797
aVc232ff1f33
p1800
asV8654658018
p1801
(lp1802
I9
aV8123
p1803
ag1801
aV87cb61ca76
p1804
asV18630613594
p1805
(lp1806
I1
aV490
p1807
ag1805
aVebd731c897
p1808
asV14400077701
p1809
(lp1810
I4
aV3919
p1811
ag1809
aV16bb74e7d4
p1812
asV18630740343
p1813
(lp1814
I4
aV3758
p1815
ag1813
aV6bea8a1b59
p1816
asV19162816533
p1817
(lp1818
I4
aV3725
p1819
ag1817
aVcc2c083f9e
p1820
asV14670036889
p1821
(lp1822
I4
aV3853
p1823
ag1821
aVcba442271b
p1824
asV14423787834
p1825
(lp1826
I6
aV5316
p1827
ag1825
aV8d15193789
p1828
asV24798603454
p1829
(lp1830
I2
aV1520
p1831
ag1829
aVb962273e55
p1832
asV18629628243
p1833
(lp1834
I1
aV435
p1835
ag1833
aVf140acd6bc
p1836
asV8235746754
p1837
(lp1838
I9
aV8202
p1839
ag1837
aV16f42e0ee2
p1840
asV20040131961
p1841
(lp1842
I1
aV367
p1843
ag1841
aV76a4e5f4e2
p1844
asV14463405495
p1845
(lp1846
I4
aV3889
p1847
ag1845
aVa499ea86fe
p1848
asV12692510543
p1849
(lp1850
I4
aV3819
p1851
ag1849
aVa35ee693c5
p1852
asV18621948264
p1853
(lp1854
I1
aV273
p1855
ag1853
aV5b52b178fe
p1856
asV19244408145
p1857
(lp1858
I1
aV449
p1859
ag1857
aV50ba1f5ba8
p1860
asV19198227736
p1861
(lp1862
I4
aV3697
p1863
ag1861
aV7a510a06b7
p1864
asV8449317766
p1865
(lp1866
I9
aV8189
p1867
ag1865
aV256abfa0d6
p1868
asV15220105837
p1869
(lp1870
I4
aV3931
p1871
ag1869
aV7b0e6e15f1
p1872
asV15033892313
p1873
(lp1874
I8
aV7484
p1875
ag1873
aV688242f683
p1876
asV14381785240
p1877
(lp1878
I6
aV5569
p1879
ag1877
aV54a1a4de3d
p1880
asV19087856891
p1881
(lp1882
I1
aV500
p1883
ag1881
aV76021abdb9
p1884
asV18630985254
p1885
(lp1886
I1
aV306
p1887
ag1885
aV22d0102dff
p1888
asV15979452785
p1889
(lp1890
I8
aV7550
p1891
ag1889
aV3e25fd3191
p1892
asV33123200034
p1893
(lp1894
I3
aV2863
p1895
ag1893
aV801d5b992a
p1896
asV19078940822
p1897
(lp1898
I1
aV353
p1899
ag1897
aV0223854400
p1900
asV15873980648
p1901
(lp1902
I8
aV7546
p1903
ag1901
aV33cc2d264d
p1904
asV16702936796
p1905
(lp1906
I9
aV8623
p1907
ag1905
aV7060629842
p1908
asV19067250839
p1909
(lp1910
I1
aV344
p1911
ag1909
aV2d36615717
p1912
asV9345735073
p1913
(lp1914
I8
aV7357
p1915
ag1913
aV05ca78b2c9
p1916
asV19228597916
p1917
(lp1918
I1
aV276
p1919
ag1917
aV56ec6263a0
p1920
asV23797491204
p1921
(lp1922
I2
aV1607
p1923
ag1921
aVf00e7e44ec
p1924
asV9249878628
p1925
(lp1926
I8
aV7322
p1927
ag1925
aV6e3222e29f
p1928
asV19094057440
p1929
(lp1930
I1
aV471
p1931
ag1929
aV9e301776c9
p1932
asV9189769056
p1933
(lp1934
I8
aV7449
p1935
ag1933
aV896d211cee
p1936
asV8117667744
p1937
(lp1938
I9
aV8045
p1939
ag1937
aV25a50a0500
p1940
asV27831635566
p1941
(lp1942
I8
aV7313
p1943
ag1941
aV986a39a711
p1944
asV12140147255
p1945
(lp1946
I6
aV5519
p1947
ag1945
aVc4e4f687af
p1948
asV14493273062
p1949
(lp1950
I6
aV5593
p1951
ag1949
aVafb09a7091
p1952
asV8531221241
p1953
(lp1954
I9
aV8378
p1955
ag1953
aV05f71a6fd5
p1956
asV20880619815
p1957
(lp1958
I6
aV5688
p1959
ag1957
aVd9784f9ecb
p1960
asV8416052193
p1961
(lp1962
I9
aV8473
p1963
ag1961
aVd4bd5365e2
p1964
asV27827711642
p1965
(lp1966
I8
aV7433
p1967
ag1965
aV739f88e768
p1968
asV8235766038
p1969
(lp1970
I9
aV8488
p1971
ag1969
aV93b1649068
p1972
asV27033229810
p1973
(lp1974
I8
aV7367
p1975
ag1973
aV8cd5e285ce
p1976
asV8530696758
p1977
(lp1978
I9
aV8249
p1979
ag1977
aVa68a11451c
p1980
asV11335883915
p1981
(lp1982
I4
aV3741
p1983
ag1981
aV8b60096c15
p1984
asV24846468482
p1985
(lp1986
I2
aV1704
p1987
ag1985
aV09b2700bcb
p1988
asV16108895243
p1989
(lp1990
I9
aV8598
p1991
ag1989
aVee0df6aa68
p1992
asV34158564231
p1993
(lp1994
I5
aV4174
p1995
ag1993
aV60b572745b
p1996
asV18623860893
p1997
(lp1998
I4
aV3685
p1999
ag1997
aV8ddd09bcc8
p2000
asV15818887502
p2001
(lp2002
I9
aV8543
p2003
ag2001
aVc887beeb00
p2004
asV16108886203
p2005
(lp2006
I9
aV8635
p2007
ag2005
aVe5197f1fbe
p2008
asV18621950764
p2009
(lp2010
I1
aV501
p2011
ag2009
aV30d07bbd68
p2012
asV19100256418
p2013
(lp2014
I1
aV459
p2015
ag2013
aV193128ded2
p2016
asV14462285734
p2017
(lp2018
I3
aV2937
p2019
ag2017
aVc34ac69056
p2020
asV19227227316
p2021
(lp2022
I1
aV501
p2023
ag2021
aV73ac31d3cc
p2024
asV15585160871
p2025
(lp2026
I4
aV3945
p2027
ag2025
aVbe3ab62e5a
p2028
asV18659187304
p2029
(lp2030
I1
aV499
p2031
ag2029
aV4f909d646a
p2032
asV9888926493
p2033
(lp2034
I6
aV5512
p2035
ag2033
aVa0bd9920ce
p2036
asV34248995486
p2037
(lp2038
I5
aV4165
p2039
ag2037
aVdb8fe83155
p2040
asV8234702531
p2041
(lp2042
I9
aV8202
p2043
ag2041
aVaae5709f17
p2044
asV14514947453
p2045
(lp2046
I6
aV5507
p2047
ag2045
aV504a3f571c
p2048
asV18621947254
p2049
(lp2050
I1
aV267
p2051
ag2049
aVd0cd45c04c
p2052
asV14238320018
p2053
(lp2054
I3
aV2918
p2055
ag2053
aV309463fb48
p2056
asV19218330686
p2057
(lp2058
I1
aV375
p2059
ag2057
aVb0ddf6dc5f
p2060
asV8930437393
p2061
(lp2062
I8
aV7437
p2063
ag2061
aV45026ccff1
p2064
asV18603755273
p2065
(lp2066
I1
aV325
p2067
ag2065
aV6013e812f8
p2068
asV19162934953
p2069
(lp2070
I4
aV3687
p2071
ag2069
aV7198c327cb
p2072
asV33968251935
p2073
(lp2074
I3
aV2935
p2075
ag2073
aVa64bd8c978
p2076
asV8235748650
p2077
(lp2078
I9
aV8479
p2079
ag2077
aVf2091f909e
p2080
asV17029442837
p2081
(lp2082
I8
aV7629
p2083
ag2081
aVc93d36088b
p2084
asV14494703035
p2085
(lp2086
I3
aV2929
p2087
ag2085
aVd80027f2d6
p2088
asV29004876030
p2089
(lp2090
I9
aV8109
p2091
ag2089
aVd2ff2a99ee
p2092
asV23770050019
p2093
(lp2094
I2
aV1511
p2095
ag2093
aV0a5680779f
p2096
asV14494554975
p2097
(lp2098
I6
aV5555
p2099
ag2097
aVcb4c01504d
p2100
asV20028630140
p2101
(lp2102
I4
aV3736
p2103
ag2101
aVef426319d5
p2104
asV13923023097
p2105
(lp2106
I6
aV5238
p2107
ag2105
aVb133dd46e1
p2108
asV19058347036
p2109
(lp2110
I1
aV294
p2111
ag2109
aV7687eb148e
p2112
asV16727766172
p2113
(lp2114
I9
aV8572
p2115
ag2113
aV2abfe38b9d
p2116
asV14732631554
p2117
(lp2118
I6
aV5575
p2119
ag2117
aV189e4ec12e
p2120
asV19056836048
p2121
(lp2122
I1
aV361
p2123
ag2121
aV40cd3c710a
p2124
asV13478617554
p2125
(lp2126
I4
aV3783
p2127
ag2125
aV0e1f190f89
p2128
asV19238477472
p2129
(lp2130
I1
aV551
p2131
ag2129
aVc46e5c84f6
p2132
asV14308053350
p2133
(lp2134
I6
aV5527
p2135
ag2133
aV17a98f503a
p2136
asV19238477372
p2137
(lp2138
I1
aV268
p2139
ag2137
aVd60c9ba33f
p2140
asV14216814328
p2141
(lp2142
I4
aV3883
p2143
ag2141
aVe0f05473a0
p2144
asV19244407355
p2145
(lp2146
I1
aV494
p2147
ag2145
aV61268ec9c5
p2148
asV23288812479
p2149
(lp2150
I1
aV625
p2151
ag2149
aV1df33e09e2
p2152
asV19793417016
p2153
(lp2154
I1
aV495
p2155
ag2153
aVa94f2d9aff
p2156
asV19249495882
p2157
(lp2158
I1
aV277
p2159
ag2157
aV2df46f8f4c
p2160
asV18241779254
p2161
(lp2162
I6
aV5586
p2163
ag2161
aVe7e8e7786f
p2164
asV26828288790
p2165
(lp2166
I8
aV7793
p2167
ag2165
aV6607526a24
p2168
asV8234696039
p2169
(lp2170
I9
aV8070
p2171
ag2169
aVf817fcb3ff
p2172
asV30457957315
p2173
(lp2174
I9
aV8645
p2175
ag2173
aVf47489dd78
p2176
asV14493630362
p2177
(lp2178
I6
aV5521
p2179
ag2177
aVdce0676f1e
p2180
asV17904782934
p2181
(lp2182
I9
aV8891
p2183
ag2181
aV4978f15430
p2184
asV19238482312
p2185
(lp2186
I1
aV544
p2187
ag2185
aV986a568630
p2188
asV19196136725
p2189
(lp2190
I4
aV3683
p2191
ag2189
aV76d9ef4671
p2192
asV8095370274
p2193
(lp2194
I9
aV8475
p2195
ag2193
aV1e662390fe
p2196
asV8868874131
p2197
(lp2198
I8
aV7294
p2199
ag2197
aVc269448d0a
p2200
asV8235763896
p2201
(lp2202
I9
aV8337
p2203
ag2201
aV567b8d2897
p2204
asV34663679394
p2205
(lp2206
I5
aV4216
p2207
ag2205
aV2ec9a762f8
p2208
asV9820687764
p2209
(lp2210
I8
aV7312
p2211
ag2209
aV8a27bebd7d
p2212
asV14238319020
p2213
(lp2214
I3
aV2902
p2215
ag2213
aVa469c39351
p2216
asV34724467234
p2217
(lp2218
I5
aV4212
p2219
ag2217
aVbc38bea28f
p2220
asV19066463879
p2221
(lp2222
I1
aV388
p2223
ag2221
aV06cf071dbc
p2224
asV8335377111
p2225
(lp2226
I9
aV8493
p2227
ag2225
aVaa8a26bb95
p2228
asV10851002643
p2229
(lp2230
I6
aV5475
p2231
ag2229
aV732ec063a8
p2232
asV33479345543
p2233
(lp2234
I3
aV2828
p2235
ag2233
aVe33ce115c8
p2236
asV19056831878
p2237
(lp2238
I1
aV484
p2239
ag2237
aV4363ecd64b
p2240
asV19285570881
p2241
(lp2242
I1
aV371
p2243
ag2241
aVfee5295457
p2244
asV8654664980
p2245
(lp2246
I9
aV8110
p2247
ag2245
aV66ba510ec4
p2248
asV13896196106
p2249
(lp2250
I4
aV3731
p2251
ag2249
aV9bf4893a82
p2252
asV11674840435
p2253
(lp2254
I8
aV7419
p2255
ag2253
aVdc366d9f4d
p2256
asV35032659102
p2257
(lp2258
I5
aV4252
p2259
ag2257
aV3a2c807338
p2260
asV9712963042
p2261
(lp2262
I4
aV3803
p2263
ag2261
aV7ac98e6440
p2264
asV19058280739
p2265
(lp2266
I1
aV557
p2267
ag2265
aVc6082639a4
p2268
asV14493403604
p2269
(lp2270
I3
aV2938
p2271
ag2269
aVe79bb62f11
p2272
asV19248216091
p2273
(lp2274
I1
aV285
p2275
ag2273
aVa2bf739eca
p2276
asV9249833020
p2277
(lp2278
I4
aV3801
p2279
ag2277
aV7499f01659
p2280
asV13787638005
p2281
(lp2282
I8
aV7034
p2283
ag2281
aVc9a3c356c5
p2284
asV24562045120
p2285
(lp2286
I2
aV1575
p2287
ag2285
aVb50ef61fae
p2288
asV18659189604
p2289
(lp2290
I4
aV3926
p2291
ag2289
aV2bc6ae85e1
p2292
asV8724623084
p2293
(lp2294
I8
aV7457
p2295
ag2293
aVc0cee52222
p2296
asV19776566952
p2297
(lp2298
I1
aV443
p2299
ag2297
aV9d9b687d21
p2300
asV18621956744
p2301
(lp2302
I1
aV278
p2303
ag2301
aV7c34231c4f
p2304
asV16082510899
p2305
(lp2306
I8
aV7582
p2307
ag2305
aV7bc10475ea
p2308
asV19244414505
p2309
(lp2310
I1
aV357
p2311
ag2309
aVa5423a711e
p2312
asV14360163048
p2313
(lp2314
I4
aV3850
p2315
ag2313
aVdb6c3bf0d4
p2316
asV19215467015
p2317
(lp2318
I1
aV385
p2319
ag2317
aVeb80f9af54
p2320
asV14357338120
p2321
(lp2322
I4
aV3882
p2323
ag2321
aV9b2fe1d740
p2324
asV19058278919
p2325
(lp2326
I1
aV454
p2327
ag2325
aV3f8b4edecd
p2328
asV33367347632
p2329
(lp2330
I3
aV2811
p2331
ag2329
aVbc7ef4b6b8
p2332
asV14505459509
p2333
(lp2334
I3
aV2933
p2335
ag2333
aV31aa2a0811
p2336
asV8559670483
p2337
(lp2338
I9
aV8524
p2339
ag2337
aV0a2bbc2d2d
p2340
asV19250448615
p2341
(lp2342
I4
aV3931
p2343
ag2341
aVed4edf673c
p2344
asV14283477569
p2345
(lp2346
I3
aV2900
p2347
ag2345
aV83aa51b2f2
p2348
asV8658988193
p2349
(lp2350
I9
aV8112
p2351
ag2349
aVe1fca035a8
p2352
asV8234707973
p2353
(lp2354
I9
aV8481
p2355
ag2353
aVc07c9c5e08
p2356
asV18600585794
p2357
(lp2358
I1
aV420
p2359
ag2357
aVe13d02ba6c
p2360
asV9820688174
p2361
(lp2362
I3
aV2876
p2363
ag2361
aVf74eecaa78
p2364
asV34129776425
p2365
(lp2366
I4
aV3848
p2367
ag2365
aV07fff2b8c2
p2368
asV18623857503
p2369
(lp2370
I4
aV3685
p2371
ag2369
aV8725c5ab3f
p2372
asV16352671846
p2373
(lp2374
I9
aV8604
p2375
ag2373
aV9fed7bb26d
p2376
asV9820702865
p2377
(lp2378
I6
aV5536
p2379
ag2377
aVb9f6a48183
p2380
asV8146955881
p2381
(lp2382
I9
aV8475
p2383
ag2381
aVfa6521e4be
p2384
asV23917412004
p2385
(lp2386
I2
aV1622
p2387
ag2385
aV12675d2d0b
p2388
asV8235770634
p2389
(lp2390
I9
aV8340
p2391
ag2389
aV3891481366
p2392
asV8180017553
p2393
(lp2394
I9
aV8207
p2395
ag2393
aV6b933c3b9e
p2396
asV17188681071
p2397
(lp2398
I9
aV8810
p2399
ag2397
aV50f92d9efb
p2400
asV18673996679
p2401
(lp2402
I6
aV5525
p2403
ag2401
aVdeb56dc1ec
p2404
asV8104693455
p2405
(lp2406
I9
aV8194
p2407
ag2405
aV2800542033
p2408
asV34248997826
p2409
(lp2410
I3
aV2816
p2411
ag2409
aVf5f5bf429b
p2412
asV31004177990
p2413
(lp2414
I6
aV5565
p2415
ag2413
aVc403cd5162
p2416
asV19616513109
p2417
(lp2418
I1
aV381
p2419
ag2417
aV8e9d312214
p2420
asV33908516140
p2421
(lp2422
I3
aV2894
p2423
ag2421
aV3cdd9500be
p2424
asV8849136379
p2425
(lp2426
I6
aV5323
p2427
ag2425
aV486b1a40af
p2428
asV14984763078
p2429
(lp2430
I4
aV3920
p2431
ag2429
aV11cb05ce80
p2432
asV8104708182
p2433
(lp2434
I9
aV8334
p2435
ag2433
aV0dc997b79f
p2436
asV20988218596
p2437
(lp2438
I6
aV5821
p2439
ag2437
aV50ce2f6dfe
p2440
asV16403743137
p2441
(lp2442
I9
aV8590
p2443
ag2441
aV563d341846
p2444
asV16541281568
p2445
(lp2446
I9
aV8583
p2447
ag2445
aV2e0ace90d3
p2448
asV33905807860
p2449
(lp2450
I3
aV2893
p2451
ag2449
aV438b91f445
p2452
asV18623852393
p2453
(lp2454
I1
aV277
p2455
ag2453
aVc876368315
p2456
asV8234704677
p2457
(lp2458
I9
aV8057
p2459
ag2457
aV6f93eac96c
p2460
asV19244412435
p2461
(lp2462
I1
aV295
p2463
ag2461
aVd7921e7303
p2464
asV21771203228
p2465
(lp2466
I1
aV752
p2467
ag2465
aV967c997438
p2468
asV8120122751
p2469
(lp2470
I9
aV8054
p2471
ag2469
aV6aef247a2f
p2472
asV8235767554
p2473
(lp2474
I9
aV8068
p2475
ag2473
aVe0f565fb8e
p2476
asV14132674422
p2477
(lp2478
I8
aV7338
p2479
ag2477
aV00830ec948
p2480
asV16727613141
p2481
(lp2482
I9
aV8586
p2483
ag2481
aV649efb07c9
p2484
asV33808627522
p2485
(lp2486
I3
aV2819
p2487
ag2485
aVd9d1179c63
p2488
asV8235756732
p2489
(lp2490
I9
aV8340
p2491
ag2489
aV6c70a63a0c
p2492
asV12692950664
p2493
(lp2494
I8
aV7421
p2495
ag2493
aV632549ca2d
p2496
asV15057206070
p2497
(lp2498
I4
aV3925
p2499
ag2497
aV296cc17945
p2500
asV16955896572
p2501
(lp2502
I9
aV8742
p2503
ag2501
aV95e8fcab61
p2504
asV29504260134
p2505
(lp2506
I8
aV7574
p2507
ag2505
aV54777730b0
p2508
asV14307788579
p2509
(lp2510
I3
aV2918
p2511
ag2509
aVd11d99fa18
p2512
asV18869019106
p2513
(lp2514
I6
aV5568
p2515
ag2513
aVabda184a7d
p2516
asV15654864142
p2517
(lp2518
I4
aV3943
p2519
ag2517
aV11f2acb428
p2520
asV19788481971
p2521
(lp2522
I4
aV3765
p2523
ag2521
aV26ee67882f
p2524
asV10847521513
p2525
(lp2526
I8
aV7454
p2527
ag2525
aV9f6f69d460
p2528
asV20043077964
p2529
(lp2530
I1
aV711
p2531
ag2529
aVa57ec9d806
p2532
asV19466337330
p2533
(lp2534
I1
aV428
p2535
ag2533
aV2fb6be1f1b
p2536
asV8186357048
p2537
(lp2538
I9
aV8338
p2539
ag2537
aVa8606eb62f
p2540
asV19056844018
p2541
(lp2542
I4
aV3884
p2543
ag2541
aVde82cf57c8
p2544
asV19281663245
p2545
(lp2546
I1
aV443
p2547
ag2545
aVba724e8329
p2548
asV27420621035
p2549
(lp2550
I8
aV7532
p2551
ag2549
aV30bc1a2ea4
p2552
asV17912524884
p2553
(lp2554
I9
aV8868
p2555
ag2553
aV0d8080348a
p2556
asV8480772072
p2557
(lp2558
I9
aV8103
p2559
ag2557
aVce7963661e
p2560
asV24233790774
p2561
(lp2562
I2
aV1539
p2563
ag2561
aVd70e68b529
p2564
asV14367365163
p2565
(lp2566
I4
aV3872
p2567
ag2565
aV1bdacdd231
p2568
asV19218319366
p2569
(lp2570
I1
aV384
p2571
ag2569
aV6c8788f7f7
p2572
asV13498650183
p2573
(lp2574
I3
aV2888
p2575
ag2573
aV22298d7f0d
p2576
asV19244419105
p2577
(lp2578
I1
aV255
p2579
ag2577
aV4470eeff07
p2580
asV13481037553
p2581
(lp2582
I4
aV3736
p2583
ag2581
aV8eb11f7604
p2584
asV19257975071
p2585
(lp2586
I1
aV274
p2587
ag2585
aVd013045ee0
p2588
asV8235773028
p2589
(lp2590
I9
aV8205
p2591
ag2589
aV7b69059f1f
p2592
asV30271141893
p2593
(lp2594
I6
aV5751
p2595
ag2593
aVb3b6beaa56
p2596
asV35907962331
p2597
(lp2598
I5
aV4311
p2599
ag2597
aV3fed9df514
p2600
asV19285570511
p2601
(lp2602
I1
aV314
p2603
ag2601
aVe24f1351d4
p2604
asV14423624372
p2605
(lp2606
I4
aV3901
p2607
ag2605
aV15fe21f8f2
p2608
asV8709854323
p2609
(lp2610
I9
aV8120
p2611
ag2609
aVf0220c59e7
p2612
asV26803463652
p2613
(lp2614
I8
aV7645
p2615
ag2613
aVeaa79e7cba
p2616
asV16762679469
p2617
(lp2618
I8
aV7622
p2619
ag2617
aV1dd0b391f9
p2620
asV25454071653
p2621
(lp2622
I2
aV1559
p2623
ag2621
aVa700dcc62e
p2624
asV33905781860
p2625
(lp2626
I3
aV2837
p2627
ag2625
aV36286925d8
p2628
asV19090392659
p2629
(lp2630
I4
aV3898
p2631
ag2629
aVf05111835c
p2632
asV18632202993
p2633
(lp2634
I4
aV3882
p2635
ag2633
aV7422fc49b6
p2636
asV13972591571
p2637
(lp2638
I8
aV7327
p2639
ag2637
aVc4897e9c79
p2640
asV19244417245
p2641
(lp2642
I1
aV456
p2643
ag2641
aVb85c1a7712
p2644
asV33905679430
p2645
(lp2646
I3
aV2879
p2647
ag2645
aV1b50e82181
p2648
asV33905733350
p2649
(lp2650
I3
aV2810
p2651
ag2649
aV77f0d46b0b
p2652
asV19217184782
p2653
(lp2654
I1
aV474
p2655
ag2653
aVa48dc3a0f8
p2656
asV22063491862
p2657
(lp2658
I1
aV619
p2659
ag2657
aVe09841cfc1
p2660
asV9247042927
p2661
(lp2662
I8
aV7449
p2663
ag2661
aVb4345905dc
p2664
asV30713430165
p2665
(lp2666
I6
aV5639
p2667
ag2665
aV57dd1b4d13
p2668
asV19248590892
p2669
(lp2670
I1
aV560
p2671
ag2669
aV685eb3aa33
p2672
asV31004178540
p2673
(lp2674
I6
aV5653
p2675
ag2673
aV0d74e06c10
p2676
asV34158542871
p2677
(lp2678
I3
aV2877
p2679
ag2677
aV61483ac5e7
p2680
asV14493183624
p2681
(lp2682
I3
aV2925
p2683
ag2681
aV6e8a12d987
p2684
asV15392320229
p2685
(lp2686
I6
aV5615
p2687
ag2685
aV08dfd93501
p2688
asV10549872333
p2689
(lp2690
I3
aV2889
p2691
ag2689
aV28c12031c6
p2692
asV13941659923
p2693
(lp2694
I4
aV3691
p2695
ag2693
aV80c026159f
p2696
asV28424212451
p2697
(lp2698
I9
aV8704
p2699
ag2697
aV58bab247c0
p2700
asV8654654504
p2701
(lp2702
I9
aV8246
p2703
ag2701
aV101fe026e9
p2704
asV8315532431
p2705
(lp2706
I9
aV8493
p2707
ag2705
aV08a0afcd4a
p2708
asV33836677391
p2709
(lp2710
I3
aV2824
p2711
ag2709
aVc612842332
p2712
asV16251595878
p2713
(lp2714
I8
aV7376
p2715
ag2713
aV730b366222
p2716
asV9054552482
p2717
(lp2718
I4
aV3755
p2719
ag2717
aV41bcbd9d86
p2720
asV19542756966
p2721
(lp2722
I1
aV401
p2723
ag2721
aVe95a8b219a
p2724
asV10048649965
p2725
(lp2726
I4
aV3676
p2727
ag2725
aVdcb2d2d8ca
p2728
asV16521554527
p2729
(lp2730
I9
aV8585
p2731
ag2729
aV2f66a7f13f
p2732
asV9120597678
p2733
(lp2734
I6
aV5323
p2735
ag2733
aV5da557d510
p2736
asV34132173652
p2737
(lp2738
I3
aV2819
p2739
ag2737
aV506605b8c7
p2740
asV19238482922
p2741
(lp2742
I1
aV287
p2743
ag2741
aV53c0937916
p2744
asV30244685001
p2745
(lp2746
I9
aV8597
p2747
ag2745
aV920896b97b
p2748
asV11977665486
p2749
(lp2750
I8
aV7309
p2751
ag2749
aVfb3bf99ded
p2752
asV16766690873
p2753
(lp2754
I9
aV8773
p2755
ag2753
aV7d84d5cf36
p2756
asV16661804166
p2757
(lp2758
I9
aV8599
p2759
ag2757
aVfef4c02ab4
p2760
asV9180761449
p2761
(lp2762
I6
aV5349
p2763
ag2761
aV9fa09396c1
p2764
asV16198192178
p2765
(lp2766
I8
aV7454
p2767
ag2765
aV59cd91cd70
p2768
asV34282851320
p2769
(lp2770
I5
aV4155
p2771
ag2769
aV791da912fc
p2772
asV23427739404
p2773
(lp2774
I2
aV1596
p2775
ag2773
aV47c387a908
p2776
asV16106522494
p2777
(lp2778
I9
aV8641
p2779
ag2777
aV08a1c7a87c
p2780
asV8234683951
p2781
(lp2782
I9
aV8488
p2783
ag2781
aV2674b593af
p2784
asV15401424239
p2785
(lp2786
I4
aV3940
p2787
ag2785
aV7265f17e3f
p2788
asV14609360927
p2789
(lp2790
I6
aV5551
p2791
ag2789
aV78e2f981bc
p2792
asV15928489352
p2793
(lp2794
I8
aV7466
p2795
ag2793
aV0a54a527d3
p2796
asV19100275778
p2797
(lp2798
I1
aV420
p2799
ag2797
aVcc8860a5a8
p2800
asV18707564240
p2801
(lp2802
I1
aV255
p2803
ag2801
aVe2c1929118
p2804
asV19252993365
p2805
(lp2806
I1
aV353
p2807
ag2805
aV52083be9b9
p2808
asV27748548260
p2809
(lp2810
I8
aV7708
p2811
ag2809
aVc36cb04199
p2812
asV14514666313
p2813
(lp2814
I3
aV2918
p2815
ag2813
aV63fe148dab
p2816
asV14403449045
p2817
(lp2818
I4
aV3905
p2819
ag2817
aV54c44870d2
p2820
asV19238488382
p2821
(lp2822
I1
aV506
p2823
ag2821
aVcc8f150898
p2824
asV33447923094
p2825
(lp2826
I3
aV2824
p2827
ag2825
aVfb13d65ec0
p2828
asV18623856253
p2829
(lp2830
I1
aV440
p2831
ag2829
aV290b1a32cf
p2832
asV35555432205
p2833
(lp2834
I5
aV4256
p2835
ag2833
aV5eff5f11b8
p2836
asV14423786434
p2837
(lp2838
I4
aV3845
p2839
ag2837
aVe0c1907a82
p2840
asV12573548495
p2841
(lp2842
I6
aV5496
p2843
ag2841
aV863bf8a604
p2844
asV9053513590
p2845
(lp2846
I8
aV7305
p2847
ag2845
aV89d3468b0a
p2848
asV16140985797
p2849
(lp2850
I9
aV8590
p2851
ag2849
aV235d5863e9
p2852
asV19066845078
p2853
(lp2854
I1
aV283
p2855
ag2853
aV94f4c1762b
p2856
asV33447880984
p2857
(lp2858
I3
aV2888
p2859
ag2857
aV57634cb00f
p2860
asV33905810570
p2861
(lp2862
I3
aV2887
p2863
ag2861
aV7d4082233f
p2864
asV34663678794
p2865
(lp2866
I5
aV4236
p2867
ag2865
aVdee3e0ea2b
p2868
asV8604599631
p2869
(lp2870
I9
aV8123
p2871
ag2869
aV34e5ea9a15
p2872
asV9182964268
p2873
(lp2874
I6
aV5511
p2875
ag2873
aVb6a15190c9
p2876
asV9017670857
p2877
(lp2878
I3
aV2841
p2879
ag2877
aV461a850215
p2880
asV25783386130
p2881
(lp2882
I2
aV1670
p2883
ag2881
aV8268acc8ac
p2884
asV8235768174
p2885
(lp2886
I9
aV8488
p2887
ag2885
aVe03b8eddbc
p2888
asV14355852811
p2889
(lp2890
I4
aV3870
p2891
ag2889
aV0c0215b57a
p2892
asV34249014426
p2893
(lp2894
I3
aV2947
p2895
ag2893
aV4e6e4d7cc9
p2896
asV19068310619
p2897
(lp2898
I1
aV319
p2899
ag2897
aVdf03692ac4
p2900
asV24579565739
p2901
(lp2902
I2
aV1608
p2903
ag2901
aV8902c82d4d
p2904
asV19662214842
p2905
(lp2906
I4
aV3692
p2907
ag2905
aV95de2f7137
p2908
asV19228010986
p2909
(lp2910
I1
aV368
p2911
ag2909
aVf3842b7b33
p2912
asV8235747508
p2913
(lp2914
I9
aV8478
p2915
ag2913
aVe5f0cb5c8b
p2916
asV34249013406
p2917
(lp2918
I5
aV4167
p2919
ag2917
aVe5752eaf2f
p2920
asV19238479112
p2921
(lp2922
I1
aV305
p2923
ag2921
aV37452d4c21
p2924
asV19056844068
p2925
(lp2926
I1
aV353
p2927
ag2925
aVf9723a7bac
p2928
asV19244745822
p2929
(lp2930
I1
aV379
p2931
ag2929
aVf5c9b4d310
p2932
asV18659187174
p2933
(lp2934
I1
aV293
p2935
ag2933
aV5e06a42736
p2936
asV31081397550
p2937
(lp2938
I6
aV5554
p2939
ag2937
aV929eaef1d5
p2940
asV33509036134
p2941
(lp2942
I3
aV2851
p2943
ag2941
aVbd83d242fc
p2944
asV33401235726
p2945
(lp2946
I4
aV3924
p2947
ag2945
aV8f9a8dd7f4
p2948
asV14401794096
p2949
(lp2950
I4
aV3879
p2951
ag2949
aVf0ba14202d
p2952
asV9180723999
p2953
(lp2954
I8
aV7338
p2955
ag2953
aVb99dd2535f
p2956
asV19094058120
p2957
(lp2958
I1
aV288
p2959
ag2957
aVc323ddb793
p2960
asV26629751242
p2961
(lp2962
I2
aV1555
p2963
ag2961
aV7f4934079d
p2964
asV26967182493
p2965
(lp2966
I8
aV7081
p2967
ag2965
aVb0e49e80c9
p2968
asV16541416260
p2969
(lp2970
I9
aV8641
p2971
ag2969
aV91f25cf044
p2972
asV14423625642
p2973
(lp2974
I6
aV5543
p2975
ag2973
aV6d2b086457
p2976
asV8146313872
p2977
(lp2978
I9
aV8191
p2979
ag2977
aVf5c691e3f5
p2980
asV20063364892
p2981
(lp2982
I1
aV516
p2983
ag2981
aV49cdf0c65c
p2984
asV14381835449
p2985
(lp2986
I4
aV3901
p2987
ag2985
aV3ec2f217b2
p2988
asV9028740089
p2989
(lp2990
I8
aV7326
p2991
ag2989
aV86e9764dec
p2992
asV16301384744
p2993
(lp2994
I8
aV7655
p2995
ag2993
aV3fb9daf095
p2996
asV19776561782
p2997
(lp2998
I1
aV280
p2999
ag2997
aVced5c3e1ff
p3000
asV14494399715
p3001
(lp3002
I4
aV3925
p3003
ag3001
aVeb6069d47b
p3004
asV9958998035
p3005
(lp3006
I8
aV7387
p3007
ag3005
aV5e28476cbb
p3008
asV26957489490
p3009
(lp3010
I8
aV7202
p3011
ag3009
aVb2d8fba63f
p3012
asV27761854625
p3013
(lp3014
I8
aV7472
p3015
ag3013
aV16abbbd187
p3016
asV25062967649
p3017
(lp3018
I2
aV1576
p3019
ag3017
aV3ea73fe598
p3020
asV19297993582
p3021
(lp3022
I1
aV539
p3023
ag3021
aVe44f2ea020
p3024
asV13459605213
p3025
(lp3026
I4
aV3787
p3027
ag3025
aV76167646e1
p3028
asV14565085921
p3029
(lp3030
I3
aV2933
p3031
ag3029
aVffb38a5a00
p3032
asV18681614404
p3033
(lp3034
I1
aV490
p3035
ag3033
aVc5de1ec588
p3036
asV9652428398
p3037
(lp3038
I6
aV5494
p3039
ag3037
aVecc5cd7ca8
p3040
asV19067536679
p3041
(lp3042
I1
aV355
p3043
ag3041
aV00a2b833ea
p3044
asV19337054040
p3045
(lp3046
I1
aV495
p3047
ag3045
aV36ab8fb1f9
p3048
asV19058276129
p3049
(lp3050
I1
aV389
p3051
ag3049
aV66324a37d5
p3052
asV8119429089
p3053
(lp3054
I9
aV8476
p3055
ag3053
aVea68dd6eae
p3056
asV33479382163
p3057
(lp3058
I3
aV2864
p3059
ag3057
aVdbcc59ace8
p3060
asV20915345930
p3061
(lp3062
I6
aV5821
p3063
ag3061
aVfa2199f915
p3064
asV13903915496
p3065
(lp3066
I6
aV5549
p3067
ag3065
aVed108f2d5f
p3068
asV14423785334
p3069
(lp3070
I6
aV5540
p3071
ag3069
aVd570c17b29
p3072
asV9247092421
p3073
(lp3074
I3
aV2885
p3075
ag3073
aV1bf29d964e
p3076
asV18682570173
p3077
(lp3078
I1
aV485
p3079
ag3077
aV05765ed275
p3080
asV15537056969
p3081
(lp3082
I4
aV3947
p3083
ag3081
aVbe7972c599
p3084
asV27619832952
p3085
(lp3086
I8
aV7668
p3087
ag3085
aV6e98c324dd
p3088
asV9249865866
p3089
(lp3090
I3
aV2870
p3091
ag3089
aV58e5dd2375
p3092
asV15610993977
p3093
(lp3094
I9
aV8417
p3095
ag3093
aV167579703c
p3096
asV9090859044
p3097
(lp3098
I8
aV7337
p3099
ag3097
aVea174464be
p3100
asV30713428655
p3101
(lp3102
I6
aV5516
p3103
ag3101
aV8650a1a193
p3104
asV11197665045
p3105
(lp3106
I6
aV5479
p3107
ag3105
aV976e2d0384
p3108
asV9820776523
p3109
(lp3110
I6
aV5443
p3111
ag3109
aV62e616a8ed
p3112
asV16727620861
p3113
(lp3114
I9
aV8602
p3115
ag3113
aVbd49e726ed
p3116
asV20101220329
p3117
(lp3118
I4
aV3735
p3119
ag3117
aV8ee0063271
p3120
asV19238480422
p3121
(lp3122
I1
aV357
p3123
ag3121
aV3691014e89
p3124
asV8234368623
p3125
(lp3126
I9
aV8344
p3127
ag3125
aV9afc4633e3
p3128
asV34139505540
p3129
(lp3130
I5
aV4172
p3131
ag3129
aVa195503826
p3132
asV14523658736
p3133
(lp3134
I4
aV3853
p3135
ag3133
aV04d43ba652
p3136
asV9512616834
p3137
(lp3138
I8
aV7330
p3139
ag3137
aV5f0ac3999f
p3140
asV18603758873
p3141
(lp3142
I4
aV3694
p3143
ag3141
aVbaa9b3677c
p3144
asV14563957762
p3145
(lp3146
I4
aV3912
p3147
ag3145
aV1cfffde228
p3148
asV8146315092
p3149
(lp3150
I9
aV8472
p3151
ag3149
aV9fff7ac082
p3152
asV19238489162
p3153
(lp3154
I1
aV282
p3155
ag3153
aV68b63b6c4f
p3156
asV18575543923
p3157
(lp3158
I1
aV420
p3159
ag3157
aVc64bb0b7cb
p3160
asV8234381105
p3161
(lp3162
I9
aV8338
p3163
ag3161
aV99d2d5c4f6
p3164
asV19839987635
p3165
(lp3166
I1
aV388
p3167
ag3165
aVfd847d7aac
p3168
asV14440300196
p3169
(lp3170
I6
aV5565
p3171
ag3169
aV0bb226406f
p3172
asV18599527693
p3173
(lp3174
I1
aV369
p3175
ag3173
aVc5317d01e7
p3176
asV12692598173
p3177
(lp3178
I8
aV7377
p3179
ag3177
aVb69876b8c1
p3180
asV8501704897
p3181
(lp3182
I9
aV8242
p3183
ag3181
aV75f8ccbfc2
p3184
asV16732386497
p3185
(lp3186
I8
aV7602
p3187
ag3185
aVc5900d3fb9
p3188
asV9183018972
p3189
(lp3190
I6
aV5325
p3191
ag3189
aV8cb94b07a9
p3192
asV33817374842
p3193
(lp3194
I4
aV3954
p3195
ag3193
aVf53314240f
p3196
asV19250901335
p3197
(lp3198
I1
aV473
p3199
ag3197
aVf50e5cc786
p3200
asV15814327398
p3201
(lp3202
I8
aV7551
p3203
ag3201
aV6b2c34c96c
p3204
asV33479380863
p3205
(lp3206
I5
aV4194
p3207
ag3205
aV55847fb4dd
p3208
asV19087853501
p3209
(lp3210
I1
aV423
p3211
ag3209
aV3e6b4b38d4
p3212
asV8235771396
p3213
(lp3214
I9
aV8488
p3215
ag3213
aVd6631562aa
p3216
asV18764479954
p3217
(lp3218
I1
aV265
p3219
ag3217
aVd36b479c8e
p3220
asV19248425072
p3221
(lp3222
I4
aV3906
p3223
ag3221
aV1a4e3f3fb3
p3224
asV14423626382
p3225
(lp3226
I6
aV5313
p3227
ag3225
aV2cd85233c4
p3228
asV15272259944
p3229
(lp3230
I8
aV7555
p3231
ag3229
aVe330fc2968
p3232
asV32968293310
p3233
(lp3234
I3
aV2887
p3235
ag3233
aV2bedcc67f2
p3236
asV13896060356
p3237
(lp3238
I8
aV7110
p3239
ag3237
aV5bda97829e
p3240
asV19253857835
p3241
(lp3242
I1
aV483
p3243
ag3241
aV74a3f4afdd
p3244
asV14364073537
p3245
(lp3246
I6
aV5474
p3247
ag3245
aVdb466c1f73
p3248
asV14351194008
p3249
(lp3250
I6
aV5552
p3251
ag3249
aVfef064a9f3
p3252
asV8471492819
p3253
(lp3254
I9
aV8112
p3255
ag3253
aV27a2ab50c2
p3256
asV19064488670
p3257
(lp3258
I1
aV529
p3259
ag3257
aV26dbe67197
p3260
asV8333167880
p3261
(lp3262
I9
aV8491
p3263
ag3261
aVf00bb53283
p3264
asV8235769984
p3265
(lp3266
I9
aV8341
p3267
ag3265
aV26a793cb9a
p3268
asV15578906975
p3269
(lp3270
I6
aV5607
p3271
ag3269
aV79eae567ca
p3272
asV8235761926
p3273
(lp3274
I9
aV8346
p3275
ag3273
aV837b6c97bd
p3276
asV8121267162
p3277
(lp3278
I9
aV8472
p3279
ag3277
aV89cef6ddde
p3280
asV18623857613
p3281
(lp3282
I1
aV270
p3283
ag3281
aVe811549efd
p3284
asV23468174832
p3285
(lp3286
I6
aV5629
p3287
ag3285
aV9683b21c77
p3288
asV19218321766
p3289
(lp3290
I4
aV3853
p3291
ag3289
aV7493a15134
p3292
asV14402329474
p3293
(lp3294
I6
aV5535
p3295
ag3293
aV5c2ae6ca21
p3296
asV8146602336
p3297
(lp3298
I9
aV8470
p3299
ag3297
aVa37d9808ec
p3300
asV18621955954
p3301
(lp3302
I1
aV482
p3303
ag3301
aV4747998e87
p3304
asV14604308383
p3305
(lp3306
I4
aV3852
p3307
ag3305
aVe79a07f48c
p3308
asV19597106969
p3309
(lp3310
I1
aV298
p3311
ag3309
aVb9f9b94755
p3312
asV19114801048
p3313
(lp3314
I1
aV380
p3315
ag3313
aV158395231d
p3316
asV8117333298
p3317
(lp3318
I9
aV8049
p3319
ag3317
aV22689f49df
p3320
asV15614126622
p3321
(lp3322
I4
aV3940
p3323
ag3321
aVc8c24ef853
p3324
asV19218321266
p3325
(lp3326
I1
aV263
p3327
ag3325
aV176dbdc22e
p3328
asV9820688544
p3329
(lp3330
I6
aV5496
p3331
ag3329
aV683da47247
p3332
asV18838082646
p3333
(lp3334
I4
aV3954
p3335
ag3333
aVb93347eb32
p3336
asV8104693739
p3337
(lp3338
I9
aV8470
p3339
ag3337
aV1fb1398d12
p3340
asV8660097756
p3341
(lp3342
I9
aV8118
p3343
ag3341
aVcc424cb6f2
p3344
asV18621955084
p3345
(lp3346
I4
aV3790
p3347
ag3345
aVf252aa6d9b
p3348
asV19246584232
p3349
(lp3350
I1
aV521
p3351
ag3349
aV5d3c4a0e83
p3352
asV8234685185
p3353
(lp3354
I9
aV8337
p3355
ag3353
aV5fe0b2edd3
p3356
asV24237817734
p3357
(lp3358
I2
aV1568
p3359
ag3357
aVeb5abaa1ea
p3360
asV16702944516
p3361
(lp3362
I9
aV8654
p3363
ag3361
aV3e9000e3e9
p3364
asV8235775880
p3365
(lp3366
I9
aV8203
p3367
ag3365
aV12402ee2c8
p3368
asV14546369424
p3369
(lp3370
I6
aV5037
p3371
ag3369
aVd9596a8b19
p3372
asV8383618393
p3373
(lp3374
I9
aV8360
p3375
ag3373
aV3e159f0802
p3376
asV14276765869
p3377
(lp3378
I4
aV3921
p3379
ag3377
aV7bd370dac6
p3380
asV18274607603
p3381
(lp3382
I6
aV5461
p3383
ag3381
aVcc64c791a1
p3384
asV19597260251
p3385
(lp3386
I4
aV3684
p3387
ag3385
aV8f4f488c92
p3388
asV25192173540
p3389
(lp3390
I2
aV1628
p3391
ag3389
aV91f1c2362a
p3392
asV33447865774
p3393
(lp3394
I3
aV2875
p3395
ag3393
aV1db1981bb9
p3396
asV14471721976
p3397
(lp3398
I4
aV3837
p3399
ag3397
aV3bdba1930f
p3400
asV19776576742
p3401
(lp3402
I4
aV3810
p3403
ag3401
aVe665d5c0ab
p3404
asV19238481432
p3405
(lp3406
I4
aV3815
p3407
ag3405
aVf6bbf52f6f
p3408
asV8234702961
p3409
(lp3410
I9
aV8348
p3411
ag3409
aV7cf4e482c3
p3412
asV34158423521
p3413
(lp3414
I3
aV2810
p3415
ag3413
aVc7d78cd561
p3416
asV33650580043
p3417
(lp3418
I5
aV4158
p3419
ag3417
aV8a7ea391f3
p3420
asV14491171171
p3421
(lp3422
I4
aV3866
p3423
ag3421
aV6ef9e211fc
p3424
asV23940591603
p3425
(lp3426
I2
aV1448
p3427
ag3425
aVda0ae1c649
p3428
asV14493631742
p3429
(lp3430
I6
aV5493
p3431
ag3429
aV3ae473ee88
p3432
asV18621953594
p3433
(lp3434
I4
aV3894
p3435
ag3433
aV8990736577
p3436
asV33479382883
p3437
(lp3438
I3
aV2879
p3439
ag3437
aVfaeb8e4571
p3440
asV16106510544
p3441
(lp3442
I9
aV8673
p3443
ag3441
aV27f46e6a8e
p3444
asV9483899172
p3445
(lp3446
I8
aV7283
p3447
ag3445
aVd59c4b7de5
p3448
asV17361414071
p3449
(lp3450
I9
aV8750
p3451
ag3449
aV5e30b666cf
p3452
asV19056840488
p3453
(lp3454
I1
aV418
p3455
ag3453
aV91798f8e63
p3456
asV15505078443
p3457
(lp3458
I8
aV7526
p3459
ag3457
aV2e8cb943b1
p3460
asV14403444485
p3461
(lp3462
I3
aV2903
p3463
ag3461
aV8f10cb58ea
p3464
asV18623864913
p3465
(lp3466
I4
aV3752
p3467
ag3465
aV976c321692
p3468
asV34271219736
p3469
(lp3470
I3
aV2904
p3471
ag3469
aVe72f9d5a52
p3472
asV34440840243
p3473
(lp3474
I5
aV4274
p3475
ag3473
aV48d3acbf27
p3476
asV15720737531
p3477
(lp3478
I4
aV3938
p3479
ag3477
aV8d2b0dcca2
p3480
asV14126893075
p3481
(lp3482
I8
aV7395
p3483
ag3481
aV728a8e537a
p3484
asV8235757802
p3485
(lp3486
I9
aV8345
p3487
ag3485
aVb74a46b754
p3488
asV18621947184
p3489
(lp3490
I1
aV339
p3491
ag3489
aV567c7632b6
p3492
asV20768144980
p3493
(lp3494
I1
aV743
p3495
ag3493
aVa32fb1168c
p3496
asV19595833440
p3497
(lp3498
I1
aV398
p3499
ag3497
aV19cd63502a
p3500
asV21529387539
p3501
(lp3502
I1
aV744
p3503
ag3501
aV1e3f98b9f0
p3504
asV14491451881
p3505
(lp3506
I6
aV5233
p3507
ag3505
aV170c012062
p3508
asV8235774352
p3509
(lp3510
I9
aV8207
p3511
ag3509
aV889a872e60
p3512
asV19248215411
p3513
(lp3514
I1
aV330
p3515
ag3513
aV90334c86be
p3516
asV35372081992
p3517
(lp3518
I5
aV4211
p3519
ag3517
aV5387ab8ba1
p3520
asV19056841028
p3521
(lp3522
I1
aV324
p3523
ag3521
aV3733a4ecb9
p3524
asV19253579995
p3525
(lp3526
I1
aV257
p3527
ag3525
aV3affd579b2
p3528
asV8422892804
p3529
(lp3530
I9
aV8378
p3531
ag3529
aV4810cf4322
p3532
asV18896853310
p3533
(lp3534
I1
aV431
p3535
ag3533
aV000b8b528f
p3536
asV8316667045
p3537
(lp3538
I9
aV8504
p3539
ag3537
aV1108d2ff64
p3540
asV13024981773
p3541
(lp3542
I8
aV7430
p3543
ag3541
aV198bcc171b
p3544
asV18631558664
p3545
(lp3546
I1
aV449
p3547
ag3545
aV74f6ff3f4d
p3548
asV8121192441
p3549
(lp3550
I9
aV8186
p3551
ag3549
aV268c5a2621
p3552
asV9183005034
p3553
(lp3554
I8
aV7308
p3555
ag3553
aV5548b7e7da
p3556
asV19218330586
p3557
(lp3558
I1
aV287
p3559
ag3557
aV89912e56ec
p3560
asV19218321306
p3561
(lp3562
I1
aV416
p3563
ag3561
aV87ef6d9cf0
p3564
asV18621956414
p3565
(lp3566
I1
aV467
p3567
ag3565
aVe5d1f89355
p3568
asV9154349829
p3569
(lp3570
I8
aV7324
p3571
ag3569
aV89a34ca6de
p3572
asV16727761662
p3573
(lp3574
I9
aV8577
p3575
ag3573
aV6c322f94f6
p3576
asV8656612434
p3577
(lp3578
I9
aV8101
p3579
ag3577
aV64182ccba3
p3580
asV9247049785
p3581
(lp3582
I6
aV5321
p3583
ag3581
aV928d275f38
p3584
asV16108885323
p3585
(lp3586
I9
aV8673
p3587
ag3585
aV927953d605
p3588
asV8655529535
p3589
(lp3590
I9
aV8109
p3591
ag3589
aV99b55a3594
p3592
asV27820077362
p3593
(lp3594
I8
aV7358
p3595
ag3593
aV64cacef0be
p3596
asV19056842128
p3597
(lp3598
I1
aV282
p3599
ag3597
aV55d1b7cd86
p3600
asV13949631327
p3601
(lp3602
I6
aV5517
p3603
ag3601
aV69696c200b
p3604
asV9249844706
p3605
(lp3606
I8
aV7423
p3607
ag3605
aVf9b2d5f379
p3608
asV18661117403
p3609
(lp3610
I1
aV483
p3611
ag3609
aVdc916d4402
p3612
asV20610385089
p3613
(lp3614
I1
aV763
p3615
ag3613
aV9d6ec0895a
p3616
asV9480457363
p3617
(lp3618
I8
aV7458
p3619
ag3617
aV717f9f9971
p3620
asV13415117855
p3621
(lp3622
I4
aV3674
p3623
ag3621
aV168517bbbb
p3624
asV33331152343
p3625
(lp3626
I3
aV2880
p3627
ag3625
aVa191a3d2c3
p3628
asV15537480517
p3629
(lp3630
I8
aV7553
p3631
ag3629
aV1d0fc413b6
p3632
asV14424925505
p3633
(lp3634
I6
aV5032
p3635
ag3633
aV4f7ab711ef
p3636
as.