(dp0
V19281661035
p1
(lp2
I1
aV261
p3
ag1
aVc6d4a2e4dd
p4
aS'0'
p5
asV19162955583
p6
(lp7
I4
aV3727
p8
ag6
aV5bcefa2cf8
p9
ag5
asV16108891473
p10
(lp11
I9
aV8618
p12
ag10
aVdb09648b4a
p13
ag5
asV34440831393
p14
(lp15
I5
aV4243
p16
ag14
aV89b4c502ee
p17
ag5
asV14216820768
p18
(lp19
I4
aV3837
p20
ag18
aV9075bdccba
p21
asV34595727991
p22
(lp23
I5
aV4178
p24
ag22
aVd926a0b793
p25
asV19337054040
p26
(lp27
I1
aV495
p28
ag26
aV36ab8fb1f9
p29
asV14357621899
p30
(lp31
I6
aV5559
p32
ag30
aVae63620228
p33
asV15220105837
p34
(lp35
I4
aV3931
p36
ag34
aV7b0e6e15f1
p37
asV27254285604
p38
(lp39
I8
aV7664
p40
ag38
aV1a813a3b7c
p41
asV35084501382
p42
(lp43
I5
aV4267
p44
ag42
aVba3543d6be
p45
asV25444295230
p46
(lp47
I2
aV1542
p48
ag46
aV13c3bf186c
p49
asV33936086665
p50
(lp51
I3
aV2825
p52
ag50
aV1876d25287
p53
asV19597110039
p54
(lp55
I1
aV513
p56
ag54
aVb7827dc1e3
p57
asV14308370297
p58
(lp59
I4
aV3866
p60
ag58
aV90cc887745
p61
asV14302481081
p62
(lp63
I6
aV5274
p64
ag62
aV1d929e0804
p65
asV9053703458
p66
(lp67
I6
aV5466
p68
ag66
aV559d5595d0
p69
asV19247588532
p70
(lp71
I1
aV317
p72
ag70
aV2d16a98ce2
p73
asV18633761193
p74
(lp75
I4
aV3784
p76
ag74
aV5e51447385
p77
asV16849689589
p78
(lp79
I9
aV8745
p80
ag78
aV16ef3d7fae
p81
asV19058270979
p82
(lp83
I1
aV451
p84
ag82
aV3a0d38676f
p85
asV19052436188
p86
(lp87
I4
aV3702
p88
ag86
aV6d71de13d7
p89
asV12110618524
p90
(lp91
I8
aV7416
p92
ag90
aVc3820ef43b
p93
asV34742817143
p94
(lp95
I5
aV4238
p96
ag94
aV142dee35ea
p97
asV19087856891
p98
(lp99
I1
aV500
p100
ag98
aV76021abdb9
p101
asV8139894749
p102
(lp103
I9
aV8043
p104
ag102
aVb58df2f04e
p105
asV33908516140
p106
(lp107
I3
aV2894
p108
ag106
aV3cdd9500be
p109
asV9249855026
p110
(lp111
I8
aV7291
p112
ag110
aVbcbcac692e
p113
asV9180890699
p114
(lp115
I6
aV5519
p116
ag114
aV2c76b73430
p117
asV16728842135
p118
(lp119
I9
aV8618
p120
ag118
aVabe6a4e011
p121
asV19241252152
p122
(lp123
I4
aV3931
p124
ag122
aVd4eaf07783
p125
asV19240018025
p126
(lp127
I1
aV429
p128
ag126
aV6b185d8450
p129
asV14307871419
p130
(lp131
I4
aV3880
p132
ag130
aVdf872e8e5f
p133
asV19653453499
p134
(lp135
I1
aV383
p136
ag134
aVf9063a1be9
p137
asV9119840750
p138
(lp139
I8
aV7419
p140
ag138
aVf1dc073097
p141
asV14483566763
p142
(lp143
I3
aV2919
p144
ag142
aVb5b9acc27c
p145
asV14514665913
p146
(lp147
I4
aV3847
p148
ag146
aV51687e65fa
p149
asV20956127595
p150
(lp151
I6
aV5815
p152
ag150
aV8f9341d745
p153
asV33447919184
p154
(lp155
I3
aV2885
p156
ag154
aV40e10f8e3e
p157
asV24980609943
p158
(lp159
I2
aV1547
p160
ag158
aV02cb535aa4
p161
asV19256640721
p162
(lp163
I1
aV336
p164
ag162
aVd723e7e39f
p165
asV16287895353
p166
(lp167
I8
aV7584
p168
ag166
aV202863a8a9
p169
asV17983814804
p170
(lp171
I1
aV339
p172
ag170
aV168ea45dfc
p173
asV33669365845
p174
(lp175
I4
aV3788
p176
ag174
aV3b3009bcec
p177
asV19063536688
p178
(lp179
I1
aV487
p180
ag178
aVbab0fed6a0
p181
asV14167557891
p182
(lp183
I8
aV7399
p184
ag182
aVecf41638e3
p185
asV18619451613
p186
(lp187
I4
aV3922
p188
ag186
aV2e7d0a4b9f
p189
asV32582460425
p190
(lp191
I1
aV333
p192
ag190
aV38de5eca60
p193
asV9053587194
p194
(lp195
I6
aV5451
p196
ag194
aV51e40a1fbd
p197
asV14308099148
p198
(lp199
I4
aV3836
p200
ag198
aV82468ddf67
p201
asV24393329333
p202
(lp203
I2
aV1585
p204
ag202
aVd9b109dc90
p205
asV19844698091
p206
(lp207
I1
aV324
p208
ag206
aV1e0cdfdbbf
p209
asV19058277829
p210
(lp211
I4
aV3745
p212
ag210
aV17c5dea05e
p213
asV19056806800
p214
(lp215
I1
aV374
p216
ag214
aVa6af93346c
p217
asV14440300196
p218
(lp219
I6
aV5565
p220
ag218
aV0bb226406f
p221
asV27275490094
p222
(lp223
I8
aV7715
p224
ag222
aV71a855bde1
p225
asV9247042645
p226
(lp227
I6
aV5509
p228
ag226
aVc8495ecc90
p229
asV8117295084
p230
(lp231
I9
aV8474
p232
ag230
aV50654f9a5c
p233
asV19067250839
p234
(lp235
I1
aV344
p236
ag234
aV2d36615717
p237
asV35529547516
p238
(lp239
I5
aV4254
p240
ag238
aV5147b0687f
p241
asV14565087631
p242
(lp243
I6
aV5566
p244
ag242
aV15d8c77636
p245
asV14403445385
p246
(lp247
I4
aV3863
p248
ag246
aV31eef7c126
p249
asV14357426079
p250
(lp251
I4
aV3840
p252
ag250
aV6cd01e5c18
p253
asV25390312891
p254
(lp255
I2
aV1650
p256
ag254
aV9b62a7a36b
p257
asV29745856546
p258
(lp259
I9
aV8137
p260
ag258
aV799047c6d2
p261
asV34289573925
p262
(lp263
I5
aV4187
p264
ag262
aV4b2ffbfb17
p265
asV26661224156
p266
(lp267
I2
aV1453
p268
ag266
aVd591068d19
p269
asV18634003553
p270
(lp271
I4
aV3810
p272
ag270
aV1d53821733
p273
asV33628351256
p274
(lp275
I3
aV2925
p276
ag274
aV7cfdc2f61c
p277
asV23797491204
p278
(lp279
I2
aV1607
p280
ag278
aVf00e7e44ec
p281
asV26912476201
p282
(lp283
I8
aV7524
p284
ag282
aV41a5f9fbf9
p285
asV18623857443
p286
(lp287
I1
aV552
p288
ag286
aVe6c99cc86b
p289
asV11587795376
p290
(lp291
I8
aV7440
p292
ag290
aVbd1331e232
p293
asV18896843740
p294
(lp295
I4
aV3890
p296
ag294
aV4b9955586e
p297
asV32574733831
p298
(lp299
I1
aV779
p300
ag298
aV8c96e10ab9
p301
asV16727621191
p302
(lp303
I9
aV8667
p304
ag302
aVa6805dd12a
p305
asV27894842806
p306
(lp307
I8
aV7261
p308
ag306
aVf3a3d5d903
p309
asV10701907644
p310
(lp311
I3
aV2847
p312
ag310
aV254af1fd97
p313
asV16727613631
p314
(lp315
I9
aV8623
p316
ag314
aVac98351727
p317
asV8860396246
p318
(lp319
I8
aV7320
p320
ag318
aVa730fd5060
p321
asV19056819720
p322
(lp323
I1
aV488
p324
ag322
aVd9d72e6375
p325
asV9178591989
p326
(lp327
I8
aV7319
p328
ag326
aV8d295f1735
p329
asV21525037884
p330
(lp331
I6
aV5715
p332
ag330
aVde667468df
p333
asV18623854363
p334
(lp335
I4
aV3914
p336
ag334
aVcd8443ee16
p337
asV23830738476
p338
(lp339
I1
aV676
p340
ag338
aV83144e71d8
p341
asV13415117855
p342
(lp343
I4
aV3674
p344
ag342
aV168517bbbb
p345
asV19244411995
p346
(lp347
I1
aV541
p348
ag346
aVf9f25c0f9e
p349
asV14514593093
p350
(lp351
I3
aV2925
p352
ag350
aV48fcecdd57
p353
asV19595827208
p354
(lp355
I4
aV3708
p356
ag354
aV977529e170
p357
asV27831635566
p358
(lp359
I8
aV7313
p360
ag358
aV986a39a711
p361
asV18665203574
p362
(lp363
I1
aV533
p364
ag362
aVe8030f75fb
p365
asV25990329961
p366
(lp367
I2
aV1491
p368
ag366
aV6e8635a197
p369
asV8235754826
p370
(lp371
I9
aV8346
p372
ag370
aV7526e27317
p373
asV19542756966
p374
(lp375
I1
aV401
p376
ag374
aVe95a8b219a
p377
asV19058272119
p378
(lp379
I1
aV377
p380
ag378
aVcaf1dd49bc
p381
asV19063143690
p382
(lp383
I1
aV426
p384
ag382
aVf17e812d5c
p385
asV14475676706
p386
(lp387
I3
aV2939
p388
ag386
aVfc6641c32b
p389
asV33905784110
p390
(lp391
I5
aV4175
p392
ag390
aVcfe042a5de
p393
asV14471275277
p394
(lp395
I4
aV3898
p396
ag394
aV8caa25f452
p397
asV19270489362
p398
(lp399
I1
aV476
p400
ag398
aV1ca2d04922
p401
asV18623858713
p402
(lp403
I1
aV393
p404
ag402
aVa92b7faa28
p405
asV8234368623
p406
(lp407
I9
aV8344
p408
ag406
aV9afc4633e3
p409
asV26803463652
p410
(lp411
I8
aV7645
p412
ag410
aVeaa79e7cba
p413
asV19249462102
p414
(lp415
I4
aV3725
p416
ag414
aVe78965c321
p417
asV14238320760
p418
(lp419
I3
aV2913
p420
ag418
aVbba7093a8e
p421
asV8104694329
p422
(lp423
I9
aV8047
p424
ag422
aV373f8ef20f
p425
asV14462047172
p426
(lp427
I6
aV5485
p428
ag426
aVc17967c3d4
p429
asV15057206070
p430
(lp431
I4
aV3925
p432
ag430
aV296cc17945
p433
asV27786201824
p434
(lp435
I9
aV8632
p436
ag434
aVd3eb2b17cb
p437
asV28369587776
p438
(lp439
I9
aV8584
p440
ag438
aV78bd297436
p441
asV19238480422
p442
(lp443
I1
aV357
p444
ag442
aV3691014e89
p445
asV19253792725
p446
(lp447
I4
aV3873
p448
ag446
aVaa92ece5cf
p449
asV34289578365
p450
(lp451
I3
aV2949
p452
ag450
aV0c86f18b59
p453
asV10500468474
p454
(lp455
I6
aV5519
p456
ag454
aVe5235b9678
p457
asV19084604855
p458
(lp459
I1
aV284
p460
ag458
aV5249782a9d
p461
asV28546945695
p462
(lp463
I9
aV8787
p464
ag462
aV4beb124c3c
p465
asV30280495663
p466
(lp467
I6
aV5548
p468
ag466
aV845fd51a57
p469
asV16108891803
p470
(lp471
I9
aV8666
p472
ag470
aVe2636d756f
p473
asV18619449453
p474
(lp475
I1
aV257
p476
ag474
aV7e6542249c
p477
asV14520807396
p478
(lp479
I6
aV5595
p480
ag478
aV077978cb06
p481
asV14307788579
p482
(lp483
I3
aV2918
p484
ag482
aVd11d99fa18
p485
asV19058274089
p486
(lp487
I4
aV3806
p488
ag486
aVfca6a12ca0
p489
asV9170645645
p490
(lp491
I4
aV3711
p492
ag490
aVb34d2787e6
p493
asV34435391016
p494
(lp495
I5
aV4169
p496
ag494
aVcbd8135b3e
p497
asV25146336204
p498
(lp499
I2
aV1524
p500
ag498
aVf4508b73ff
p501
asV9249865656
p502
(lp503
I4
aV3764
p504
ag502
aV854d4f1381
p505
asV8234687709
p506
(lp507
I9
aV8210
p508
ag506
aV9c32844fe3
p509
asV13901872776
p510
(lp511
I8
aV7391
p512
ag510
aVcd10ec9db5
p513
asV8235776354
p514
(lp515
I9
aV8348
p516
ag514
aV29f6fe4f36
p517
asV14216820348
p518
(lp519
I4
aV3835
p520
ag518
aV138d4b402d
p521
asV14146702352
p522
(lp523
I6
aV5484
p524
ag522
aVbfc1d4ab9e
p525
asV14471368266
p526
(lp527
I6
aV5564
p528
ag526
aV9ceb8ce666
p529
asV8439003611
p530
(lp531
I9
aV8073
p532
ag530
aV878f1712cd
p533
asV18623853533
p534
(lp535
I1
aV409
p536
ag534
aV6444a1e5fc
p537
asV14536864711
p538
(lp539
I4
aV3855
p540
ag538
aV9364d9e64e
p541
asV9130822643
p542
(lp543
I6
aV5327
p544
ag542
aVf09fecf670
p545
asV19126387986
p546
(lp547
I1
aV382
p548
ag546
aVd77622a953
p549
asV19053892299
p550
(lp551
I1
aV340
p552
ag550
aV8d825f4bc4
p553
asV26026200712
p554
(lp555
I2
aV1443
p556
ag554
aVded3b015c6
p557
asV9820718656
p558
(lp559
I6
aV5339
p560
ag558
aVae84ca7a44
p561
asV9249836764
p562
(lp563
I6
aV5348
p564
ag562
aV348bc8e6fa
p565
asV14483567203
p566
(lp567
I6
aV5545
p568
ag566
aVb4b5ba953e
p569
asV17054933417
p570
(lp571
I8
aV7631
p572
ag570
aV32ac06f2d2
p573
asV19228025141
p574
(lp575
I1
aV435
p576
ag574
aV18b482c7f3
p577
asV25075016923
p578
(lp579
I2
aV1443
p580
ag578
aVde593f4796
p581
asV14727680271
p582
(lp583
I6
aV5559
p584
ag582
aVd9efcfffdc
p585
asV8235760580
p586
(lp587
I9
aV8481
p588
ag586
aV61c6cdea86
p589
asV15654018675
p590
(lp591
I8
aV7475
p592
ag590
aV2c1cc6cd8b
p593
asV19058280619
p594
(lp595
I1
aV344
p596
ag594
aV73b20e1c8d
p597
asV26267681531
p598
(lp599
I2
aV1497
p600
ag598
aVe5d64bcd1c
p601
asV14402100162
p602
(lp603
I4
aV3876
p604
ag602
aV1814626e4a
p605
asV27029517784
p606
(lp607
I8
aV7068
p608
ag606
aVf1cd5e5839
p609
asV8104693455
p610
(lp611
I9
aV8194
p612
ag610
aV2800542033
p613
asV14307750600
p614
(lp615
I4
aV3881
p616
ag614
aV6a9e5685bd
p617
asV18575543923
p618
(lp619
I1
aV420
p620
ag618
aVc64bb0b7cb
p621
asV8736087055
p622
(lp623
I8
aV7286
p624
ag622
aVae12b26f88
p625
asV14542693102
p626
(lp627
I3
aV2931
p628
ag626
aVfaaa5341fe
p629
asV27420621035
p630
(lp631
I8
aV7532
p632
ag630
aV30bc1a2ea4
p633
asV8235752572
p634
(lp635
I9
aV8067
p636
ag634
aVdb7e9bdfca
p637
asV13478226893
p638
(lp639
I8
aV7395
p640
ag638
aV0b9442e105
p641
asV9273772006
p642
(lp643
I4
aV3719
p644
ag642
aVbe6f9b65ce
p645
asV8234699175
p646
(lp647
I9
aV8060
p648
ag646
aV0375e06b2a
p649
asV34132167702
p650
(lp651
I3
aV2878
p652
ag650
aVda4a259732
p653
asV19064118229
p654
(lp655
I1
aV271
p656
ag654
aVca5a7e89ae
p657
asV19084588105
p658
(lp659
I1
aV324
p660
ag658
aV85a151cbc8
p661
asV19218447712
p662
(lp663
I1
aV546
p664
ag662
aV56280d3ab2
p665
asV28324330881
p666
(lp667
I9
aV8815
p668
ag666
aVa6da2f2f71
p669
asV15338717682
p670
(lp671
I4
aV3903
p672
ag670
aVc416e7922f
p673
asV32533032473
p674
(lp675
I4
aV3867
p676
ag674
aV64f61fb8de
p677
asV14565061891
p678
(lp679
I3
aV2898
p680
ag678
aV4c6d0b8bc8
p681
asV14308388877
p682
(lp683
I4
aV3872
p684
ag682
aV6d04023072
p685
asV35386100121
p686
(lp687
I5
aV4229
p688
ag686
aV3ed50d6212
p689
asV24233790774
p690
(lp691
I2
aV1539
p692
ag690
aVd70e68b529
p693
asV27850666841
p694
(lp695
I8
aV7550
p696
ag694
aV63c099d559
p697
asV14539272582
p698
(lp699
I3
aV2907
p700
ag698
aV62649dc270
p701
asV14307749750
p702
(lp703
I6
aV5194
p704
ag702
aVb2307031d3
p705
asV33518371660
p706
(lp707
I4
aV3910
p708
ag706
aV267ffaa300
p709
asV19281663765
p710
(lp711
I1
aV302
p712
ag710
aV1396a1717c
p713
asV29761458280
p714
(lp715
I9
aV8366
p716
ag714
aVca36843cb3
p717
asV19217918686
p718
(lp719
I1
aV300
p720
ag718
aVf9967ac95f
p721
asV14440300646
p722
(lp723
I3
aV2913
p724
ag722
aVc55e495eb2
p725
asV19065068660
p726
(lp727
I4
aV3956
p728
ag726
aVb29559957d
p729
asV14307793768
p730
(lp731
I4
aV3879
p732
ag730
aVccf34b3966
p733
asV9180816671
p734
(lp735
I6
aV5519
p736
ag734
aVdd8b945bd7
p737
asV11893397964
p738
(lp739
I8
aV7329
p740
ag738
aVbf761fe4c0
p741
asV8164569281
p742
(lp743
I8
aV7267
p744
ag742
aVb17e859cb9
p745
asV8234692959
p746
(lp747
I9
aV8070
p748
ag746
aVdcb5e73224
p749
asV33447925574
p750
(lp751
I3
aV2860
p752
ag750
aV50ed5a9c3c
p753
asV16397099602
p754
(lp755
I8
aV7356
p756
ag754
aV9343eede89
p757
asV16729534977
p758
(lp759
I9
aV8745
p760
ag758
aV5daed8e030
p761
asV16585122356
p762
(lp763
I9
aV8652
p764
ag762
aVe6cf85187f
p765
asV8095391445
p766
(lp767
I9
aV8051
p768
ag766
aV2f73d55e8b
p769
asV19056807640
p770
(lp771
I1
aV491
p772
ag770
aVefaa6f14d3
p773
asV8453798732
p774
(lp775
I9
aV8248
p776
ag774
aVed809fa330
p777
asV18621955184
p778
(lp779
I1
aV289
p780
ag778
aV7acbaec0d4
p781
asV30093762321
p782
(lp783
I6
aV5560
p784
ag782
aV070e55fc7a
p785
asV10048682606
p786
(lp787
I8
aV7424
p788
ag786
aVba69ea6d98
p789
asV8591564036
p790
(lp791
I9
aV8104
p792
ag790
aV59d06f817f
p793
asV19244175272
p794
(lp795
I1
aV504
p796
ag794
aV657cc521ab
p797
asV16422432370
p798
(lp799
I9
aV8585
p800
ag798
aV675324c2ed
p801
asV14308233768
p802
(lp803
I4
aV3905
p804
ag802
aV0ec200b569
p805
asV18818449500
p806
(lp807
I1
aV471
p808
ag806
aV1e81d4fd78
p809
asV11821007895
p810
(lp811
I3
aV2885
p812
ag810
aVae37ec6f92
p813
asV25309727512
p814
(lp815
I2
aV1647
p816
ag814
aV72e2c21485
p817
asV16106517504
p818
(lp819
I9
aV8609
p820
ag818
aV5987c73c3f
p821
asV19065809550
p822
(lp823
I1
aV425
p824
ag822
aV09f805b021
p825
asV34417698536
p826
(lp827
I5
aV4158
p828
ag826
aV6cf3bc2962
p829
asV8653559683
p830
(lp831
I9
aV8104
p832
ag830
aV08aeb4d9db
p833
asV19255592836
p834
(lp835
I4
aV3915
p836
ag834
aV0cbf2693ca
p837
asV34271219736
p838
(lp839
I3
aV2904
p840
ag838
aVe72f9d5a52
p841
asV19056837828
p842
(lp843
I1
aV398
p844
ag842
aVc89304df57
p845
asV9180735425
p846
(lp847
I4
aV3774
p848
ag846
aVde145a043a
p849
asV18623864913
p850
(lp851
I4
aV3752
p852
ag850
aV976c321692
p853
asV23176102163
p854
(lp855
I1
aV625
p856
ag854
aV69262da83a
p857
asV16316847393
p858
(lp859
I9
aV8739
p860
ag858
aV007b76f3ca
p861
asV19257975071
p862
(lp863
I1
aV274
p864
ag862
aVd013045ee0
p865
asV8146610369
p866
(lp867
I9
aV8047
p868
ag866
aV5901e25178
p869
asV19248306892
p870
(lp871
I1
aV492
p872
ag870
aV20efe633f3
p873
asV14358830560
p874
(lp875
I4
aV3907
p876
ag874
aVb5e3053127
p877
asV14768034380
p878
(lp879
I6
aV5577
p880
ag878
aVf986402bfa
p881
asV19305616961
p882
(lp883
I1
aV541
p884
ag882
aV1f05ef35af
p885
asV30271141893
p886
(lp887
I6
aV5751
p888
ag886
aVb3b6beaa56
p889
asV15978797282
p890
(lp891
I8
aV7535
p892
ag890
aV4382c4327a
p893
asV19056818740
p894
(lp895
I1
aV453
p896
ag894
aV542758546a
p897
asV13923724344
p898
(lp899
I8
aV7112
p900
ag898
aV1f1be22208
p901
asV16674122134
p902
(lp903
I8
aV7675
p904
ag902
aV559ef03176
p905
asV19067021709
p906
(lp907
I1
aV436
p908
ag906
aV73f4f9fe79
p909
asV8656617780
p910
(lp911
I9
aV8121
p912
ag910
aVab1c5e09b4
p913
asV19100216000
p914
(lp915
I4
aV3790
p916
ag914
aV18c76dc8b7
p917
asV8658998129
p918
(lp919
I9
aV8110
p920
ag918
aV6d60b8eaa7
p921
asV15891907024
p922
(lp923
I8
aV7281
p924
ag922
aV90af809afe
p925
asV34132168502
p926
(lp927
I5
aV4159
p928
ag926
aVd5bab29754
p929
asV8121267162
p930
(lp931
I9
aV8472
p932
ag930
aV89cef6ddde
p933
asV15654854052
p934
(lp935
I6
aV5602
p936
ag934
aVf69688f9de
p937
asV18623865763
p938
(lp939
I1
aV542
p940
ag938
aVc359ca3ec9
p941
asV18898089891
p942
(lp943
I6
aV5477
p944
ag942
aVf2b598bd05
p945
asV20504871203
p946
(lp947
I1
aV615
p948
ag946
aVf36973ea39
p949
asV9626607910
p950
(lp951
I4
aV3737
p952
ag950
aV1fe9d189a7
p953
asV10847518573
p954
(lp955
I4
aV3736
p956
ag954
aV2f36c3106a
p957
asV14424921485
p958
(lp959
I4
aV3920
p960
ag958
aVb3e31b5319
p961
asV8104705892
p962
(lp963
I9
aV8328
p964
ag962
aV8604239369
p965
asV19125322930
p966
(lp967
I1
aV337
p968
ag966
aV63a96c419f
p969
asV15409385527
p970
(lp971
I6
aV5609
p972
ag970
aV5687de343b
p973
asV8117290498
p974
(lp975
I9
aV8476
p976
ag974
aVdc0c0b2b25
p977
asV33905781860
p978
(lp979
I3
aV2837
p980
ag978
aV36286925d8
p981
asV17135591555
p982
(lp983
I8
aV7693
p984
ag982
aV67a390db40
p985
asV14509526280
p986
(lp987
I4
aV3885
p988
ag986
aV69be76bfe3
p989
asV11741568145
p990
(lp991
I8
aV7360
p992
ag990
aV18e5205024
p993
asV13917951703
p994
(lp995
I8
aV7122
p996
ag994
aV0c55713b9f
p997
asV19281661485
p998
(lp999
I1
aV499
p1000
ag998
aV98b802ea13
p1001
asV31197566675
p1002
(lp1003
I6
aV5464
p1004
ag1002
aV4899673a40
p1005
asV14308090699
p1006
(lp1007
I4
aV3851
p1008
ag1006
aV1391c8e52d
p1009
asV19595849080
p1010
(lp1011
I4
aV3695
p1012
ag1010
aV2a304f6292
p1013
asV27831633356
p1014
(lp1015
I8
aV7502
p1016
ag1014
aV94f57c2ec1
p1017
asV33905807860
p1018
(lp1019
I3
aV2893
p1020
ag1018
aV438b91f445
p1021
asV33134306503
p1022
(lp1023
I3
aV2874
p1024
ag1022
aV7e374a19e9
p1025
asV19094080978
p1026
(lp1027
I1
aV371
p1028
ag1026
aV9c5f1f0a25
p1029
asV33968251935
p1030
(lp1031
I3
aV2935
p1032
ag1030
aVa64bd8c978
p1033
asV19036751348
p1034
(lp1035
I4
aV3860
p1036
ag1034
aVdc9e4411ed
p1037
asV33447815494
p1038
(lp1039
I3
aV2868
p1040
ag1038
aV1c764faec1
p1041
asV33479318683
p1042
(lp1043
I3
aV2883
p1044
ag1042
aV60033f0021
p1045
asV15922741639
p1046
(lp1047
I8
aV7498
p1048
ag1046
aV37931c61e3
p1049
asV26217570731
p1050
(lp1051
I2
aV1496
p1052
ag1050
aV16ce5b1e61
p1053
asV19064182009
p1054
(lp1055
I1
aV486
p1056
ag1054
aVe0acdca8ce
p1057
asV8235750574
p1058
(lp1059
I9
aV8489
p1060
ag1058
aVc7b60dbf61
p1061
asV18632202993
p1062
(lp1063
I4
aV3882
p1064
ag1062
aV7422fc49b6
p1065
asV15991262443
p1066
(lp1067
I9
aV8605
p1068
ag1066
aV614d297b6a
p1069
asV13919663254
p1070
(lp1071
I8
aV7052
p1072
ag1070
aV46ddb55f97
p1073
asV10108660204
p1074
(lp1075
I8
aV7446
p1076
ag1074
aVc27e291c06
p1077
asV9183212314
p1078
(lp1079
I3
aV2813
p1080
ag1078
aV6f1917a9b3
p1081
asV32293257346
p1082
(lp1083
I1
aV464
p1084
ag1082
aV57fa1b8973
p1085
asV14132159081
p1086
(lp1087
I8
aV7438
p1088
ag1086
aVc4673b159c
p1089
asV16908331515
p1090
(lp1091
I8
aV7595
p1092
ag1090
aV6476a8e1b5
p1093
asV21071464423
p1094
(lp1095
I1
aV628
p1096
ag1094
aV0c0080824b
p1097
asV19218324196
p1098
(lp1099
I1
aV312
p1100
ag1098
aVbe50791c24
p1101
asV29095000273
p1102
(lp1103
I9
aV8322
p1104
ag1102
aV60d4c8892f
p1105
asV8235755500
p1106
(lp1107
I9
aV8200
p1108
ag1106
aV4c0c5f093c
p1109
asV35500403046
p1110
(lp1111
I5
aV4258
p1112
ag1110
aVe432a780a6
p1113
asV18630985254
p1114
(lp1115
I1
aV306
p1116
ag1114
aV22d0102dff
p1117
asV19244921082
p1118
(lp1119
I1
aV517
p1120
ag1118
aV007b06724d
p1121
asV30941515131
p1122
(lp1123
I6
aV5559
p1124
ag1122
aVf05bcaaef9
p1125
asV27761126824
p1126
(lp1127
I8
aV7623
p1128
ag1126
aV2335618a24
p1129
asV14493631302
p1130
(lp1131
I4
aV3896
p1132
ag1130
aV031008a0f9
p1133
asV14133138256
p1134
(lp1135
I3
aV2940
p1136
ag1134
aV480f95a547
p1137
asV18749904853
p1138
(lp1139
I1
aV485
p1140
ag1138
aVc4e958f03e
p1141
asV18729315691
p1142
(lp1143
I1
aV397
p1144
ag1142
aV177bd33ae6
p1145
asV19065831980
p1146
(lp1147
I1
aV402
p1148
ag1146
aV120165ccd2
p1149
asV18890052712
p1150
(lp1151
I1
aV379
p1152
ag1150
aVf2c056f90e
p1153
asV27275102356
p1154
(lp1155
I8
aV7641
p1156
ag1154
aVdd958a243d
p1157
asV9820688584
p1158
(lp1159
I4
aV3755
p1160
ag1158
aV60de38d38d
p1161
asV19225049756
p1162
(lp1163
I1
aV302
p1164
ag1162
aV6708e17e4e
p1165
asV8152384385
p1166
(lp1167
I8
aV7127
p1168
ag1166
aVaefd49cd6e
p1169
asV8235758364
p1170
(lp1171
I9
aV8482
p1172
ag1170
aVa93911d9d7
p1173
asV20768294628
p1174
(lp1175
I6
aV5780
p1176
ag1174
aV0f7278db1e
p1177
asV31308396566
p1178
(lp1179
I6
aV5656
p1180
ag1178
aV793014657a
p1181
asV33447811434
p1182
(lp1183
I3
aV2843
p1184
ag1182
aVa6c01c4405
p1185
asV24858790586
p1186
(lp1187
I2
aV1646
p1188
ag1186
aV3ba86fa5f5
p1189
asV8659000841
p1190
(lp1191
I9
aV8108
p1192
ag1190
aVde6665e2b8
p1193
asV14380314486
p1194
(lp1195
I4
aV3911
p1196
ag1194
aVf032278a37
p1197
asV19238487542
p1198
(lp1199
I1
aV502
p1200
ag1198
aV13b3859083
p1201
asV19244289282
p1202
(lp1203
I1
aV476
p1204
ag1202
aV84c8a3f5a2
p1205
asV15468459150
p1206
(lp1207
I8
aV7480
p1208
ag1206
aVcea0fbc389
p1209
asV19056841168
p1210
(lp1211
I1
aV292
p1212
ag1210
aV39ebcde101
p1213
asV8168589820
p1214
(lp1215
I9
aV8340
p1216
ag1214
aVc20f4dc3ed
p1217
asV9820702205
p1218
(lp1219
I8
aV7357
p1220
ag1218
aV68938fbd15
p1221
asV33447917804
p1222
(lp1223
I5
aV4163
p1224
ag1222
aV4500d8795f
p1225
asV19027846398
p1226
(lp1227
I1
aV554
p1228
ag1226
aV10e8da1fe7
p1229
asV8110668999
p1230
(lp1231
I9
aV8189
p1232
ag1230
aVeeb250ccf8
p1233
asV14514947453
p1234
(lp1235
I6
aV5507
p1236
ag1234
aV504a3f571c
p1237
asV14401796456
p1238
(lp1239
I3
aV2932
p1240
ag1238
aV2e203bd903
p1241
asV8235745950
p1242
(lp1243
I9
aV8210
p1244
ag1242
aVc6c89f13d9
p1245
asV34248989876
p1246
(lp1247
I5
aV4157
p1248
ag1246
aV7d533612f6
p1249
asV14357423817
p1250
(lp1251
I6
aV5506
p1252
ag1250
aVf30fd01eb0
p1253
asV25867110485
p1254
(lp1255
I2
aV1709
p1256
ag1254
aV947aa1f027
p1257
asV19227661826
p1258
(lp1259
I1
aV356
p1260
ag1258
aVf2924d1ed4
p1261
asV19302489505
p1262
(lp1263
I1
aV398
p1264
ag1262
aVd4a56b5541
p1265
asV10048607184
p1266
(lp1267
I8
aV7304
p1268
ag1266
aV2681d52ab5
p1269
asV20240620845
p1270
(lp1271
I1
aV278
p1272
ag1270
aVddbeb0eca5
p1273
asV8660094392
p1274
(lp1275
I9
aV8115
p1276
ag1274
aV692f7e01d4
p1277
asV8315407681
p1278
(lp1279
I9
aV8219
p1280
ag1278
aVb91bdb6bda
p1281
asV9105294788
p1282
(lp1283
I6
aV5338
p1284
ag1282
aV17776e1c27
p1285
asV19597244789
p1286
(lp1287
I1
aV487
p1288
ag1286
aVfb5e84b136
p1289
asV14238270749
p1290
(lp1291
I4
aV3906
p1292
ag1290
aVfb6cbdfe53
p1293
asV19839987635
p1294
(lp1295
I1
aV388
p1296
ag1294
aVfd847d7aac
p1297
asV30713430165
p1298
(lp1299
I6
aV5639
p1300
ag1298
aV57dd1b4d13
p1301
asV25429180795
p1302
(lp1303
I2
aV1692
p1304
ag1302
aVec9cca09c0
p1305
asV8532844442
p1306
(lp1307
I9
aV8516
p1308
ag1306
aV81e85afa6f
p1309
asV18623852393
p1310
(lp1311
I1
aV277
p1312
ag1310
aVc876368315
p1313
asV19285570881
p1314
(lp1315
I1
aV371
p1316
ag1314
aVfee5295457
p1317
asV9820717486
p1318
(lp1319
I4
aV3758
p1320
ag1318
aVee8427c4c4
p1321
asV12080007056
p1322
(lp1323
I6
aV5497
p1324
ag1322
aV7bffcc3d39
p1325
asV34920909363
p1326
(lp1327
I5
aV4280
p1328
ag1326
aV80aebeed75
p1329
asV14238320188
p1330
(lp1331
I6
aV5569
p1332
ag1330
aV53cabcdd97
p1333
asV33956709111
p1334
(lp1335
I3
aV2897
p1336
ag1334
aVc54ca35e32
p1337
asV19058273989
p1338
(lp1339
I1
aV285
p1340
ag1338
aVb48ce1c54c
p1341
asV9820687814
p1342
(lp1343
I3
aV2876
p1344
ag1342
aV263ecf880b
p1345
asV9247104921
p1346
(lp1347
I8
aV7302
p1348
ag1346
aV9579d24607
p1349
asV14538928012
p1350
(lp1351
I4
aV3874
p1352
ag1350
aV1524146f4a
p1353
asV8234710885
p1354
(lp1355
I9
aV8489
p1356
ag1354
aV19d671786a
p1357
asV14423784774
p1358
(lp1359
I4
aV3894
p1360
ag1358
aV97d6a50808
p1361
asV14461303692
p1362
(lp1363
I6
aV5542
p1364
ag1362
aV875cfe3ee9
p1365
asV34158542871
p1366
(lp1367
I3
aV2877
p1368
ag1366
aV61483ac5e7
p1369
asV19056809760
p1370
(lp1371
I1
aV481
p1372
ag1370
aV902f7c480f
p1373
asV19247291172
p1374
(lp1375
I1
aV469
p1376
ag1374
aV49fe12e0ec
p1377
asV9249886300
p1378
(lp1379
I4
aV3741
p1380
ag1378
aV00a1425460
p1381
asV19244409765
p1382
(lp1383
I1
aV536
p1384
ag1382
aV9386f1709d
p1385
asV19095553229
p1386
(lp1387
I1
aV323
p1388
ag1386
aV3159412460
p1389
asV16727766562
p1390
(lp1391
I9
aV8622
p1392
ag1390
aV595e7a6307
p1393
asV19218321766
p1394
(lp1395
I4
aV3853
p1396
ag1394
aV7493a15134
p1397
asV19008516170
p1398
(lp1399
I1
aV332
p1400
ag1398
aV33a186d920
p1401
asV8467519956
p1402
(lp1403
I9
aV8529
p1404
ag1402
aV3e8ec935ef
p1405
asV30400970903
p1406
(lp1407
I6
aV5346
p1408
ag1406
aVe1f89f08de
p1409
asV11675644536
p1410
(lp1411
I4
aV3706
p1412
ag1410
aV37abd9e5b4
p1413
asV16548567423
p1414
(lp1415
I8
aV7621
p1416
ag1414
aV102e5d6229
p1417
asV34527607144
p1418
(lp1419
I5
aV4198
p1420
ag1418
aV52b86fa697
p1421
asV14588557803
p1422
(lp1423
I6
aV5501
p1424
ag1422
aV55cc2f55e1
p1425
asV19218322596
p1426
(lp1427
I1
aV543
p1428
ag1426
aV1dc471b8b6
p1429
asV8104706334
p1430
(lp1431
I9
aV8184
p1432
ag1430
aV0651f65dc1
p1433
asV18621954154
p1434
(lp1435
I1
aV372
p1436
ag1434
aV941796386f
p1437
asV34289491265
p1438
(lp1439
I3
aV2829
p1440
ag1438
aVfdc9b550a5
p1441
asV9439187284
p1442
(lp1443
I8
aV7388
p1444
ag1442
aV8db3a05334
p1445
asV32504141314
p1446
(lp1447
I3
aV2811
p1448
ag1446
aV05dc59e885
p1449
asV15033875013
p1450
(lp1451
I4
aV3954
p1452
ag1450
aVf71a62a217
p1453
asV10847521313
p1454
(lp1455
I8
aV7340
p1456
ag1454
aVd5a0f02cf6
p1457
asV14462046142
p1458
(lp1459
I4
aV3910
p1460
ag1458
aV4bc3a9b133
p1461
asV14604308383
p1462
(lp1463
I4
aV3852
p1464
ag1462
aVe79a07f48c
p1465
asV19234093902
p1466
(lp1467
I1
aV524
p1468
ag1466
aV8de928089d
p1469
asV13158691753
p1470
(lp1471
I4
aV3684
p1472
ag1470
aV1169446c26
p1473
asV14798920772
p1474
(lp1475
I6
aV5580
p1476
ag1474
aVb92af14ddf
p1477
asV12863353774
p1478
(lp1479
I3
aV2863
p1480
ag1478
aV9b759a01cd
p1481
asV19597260251
p1482
(lp1483
I4
aV3684
p1484
ag1482
aV8f4f488c92
p1485
asV26413547533
p1486
(lp1487
I8
aV7003
p1488
ag1486
aV2f71317f27
p1489
asV18659188824
p1490
(lp1491
I1
aV425
p1492
ag1490
aV2dbc2cc831
p1493
asV19215441305
p1494
(lp1495
I1
aV294
p1496
ag1494
aV305f41b04d
p1497
asV8234685917
p1498
(lp1499
I9
aV8348
p1500
ag1498
aVf2721c6e14
p1501
asV29504392104
p1502
(lp1503
I6
aV5505
p1504
ag1502
aV627b247f72
p1505
asV8138117570
p1506
(lp1507
I9
aV8049
p1508
ag1506
aV8ae7ef3c31
p1509
asV19036691910
p1510
(lp1511
I1
aV329
p1512
ag1510
aVa69365a07c
p1513
asV25690843184
p1514
(lp1515
I2
aV1659
p1516
ag1514
aV6c349007a8
p1517
asV19234095372
p1518
(lp1519
I1
aV278
p1520
ag1518
aV520abd03a3
p1521
asV29641157000
p1522
(lp1523
I9
aV8641
p1524
ag1522
aV74f9a27500
p1525
asV9180845813
p1526
(lp1527
I8
aV7312
p1528
ag1526
aV68e5629bd6
p1529
asV27869839996
p1530
(lp1531
I8
aV7310
p1532
ag1530
aVd940381d31
p1533
asV19036708250
p1534
(lp1535
I1
aV270
p1536
ag1534
aVc998a302e1
p1537
asV21795006679
p1538
(lp1539
I6
aV5802
p1540
ag1538
aVd72fa9a11a
p1541
asV9180774231
p1542
(lp1543
I4
aV3727
p1544
ag1542
aVea23591a70
p1545
asV16736282752
p1546
(lp1547
I9
aV8577
p1548
ag1546
aV593ec05320
p1549
asV18903692979
p1550
(lp1551
I1
aV443
p1552
ag1550
aV9df99bde7b
p1553
asV9249856284
p1554
(lp1555
I8
aV7442
p1556
ag1554
aV88e9b0aaaa
p1557
asV19162821643
p1558
(lp1559
I1
aV525
p1560
ag1558
aVf7ff57f433
p1561
asV8651385456
p1562
(lp1563
I9
aV8406
p1564
ag1562
aV9a934b07ce
p1565
asV26523204410
p1566
(lp1567
I8
aV7210
p1568
ag1566
aV89eae111b3
p1569
asV18361039253
p1570
(lp1571
I1
aV524
p1572
ag1570
aVaa6123f5a1
p1573
asV15380997813
p1574
(lp1575
I8
aV7479
p1576
ag1574
aVd9acf2ca73
p1577
asV14627163396
p1578
(lp1579
I6
aV5529
p1580
ag1578
aVf80f60bf0b
p1581
asV9103077713
p1582
(lp1583
I8
aV7337
p1584
ag1582
aV4d72540c4a
p1585
asV10500470064
p1586
(lp1587
I4
aV3683
p1588
ag1586
aVd10f9e82f2
p1589
asV19064666959
p1590
(lp1591
I1
aV388
p1592
ag1590
aV55bdfba7cf
p1593
asV19056841538
p1594
(lp1595
I1
aV367
p1596
ag1594
aVe43833dbe1
p1597
asV9820687174
p1598
(lp1599
I4
aV3766
p1600
ag1598
aV92db22f47b
p1601
asV34577328431
p1602
(lp1603
I5
aV4165
p1604
ag1602
aV9c42cb9800
p1605
asV19595700540
p1606
(lp1607
I1
aV419
p1608
ag1606
aV619b9c4be3
p1609
asV8234701089
p1610
(lp1611
I9
aV8202
p1612
ag1610
aV7ebd90e9c1
p1613
asV8235755972
p1614
(lp1615
I9
aV8069
p1616
ag1614
aV6a854d6f2a
p1617
asV19162931773
p1618
(lp1619
I4
aV3773
p1620
ag1618
aVbdc111480f
p1621
asV8234709535
p1622
(lp1623
I9
aV8342
p1624
ag1622
aV83c70fcdd9
p1625
asV19238479672
p1626
(lp1627
I1
aV308
p1628
ag1626
aV593a3cb002
p1629
asV8104693993
p1630
(lp1631
I9
aV8055
p1632
ag1630
aVbdc6406889
p1633
asV18621947254
p1634
(lp1635
I1
aV267
p1636
ag1634
aVd0cd45c04c
p1637
asV34158541691
p1638
(lp1639
I3
aV2866
p1640
ag1638
aV28730252c5
p1641
asV33479370303
p1642
(lp1643
I3
aV2812
p1644
ag1642
aVb74af732b8
p1645
asV33120617094
p1646
(lp1647
I3
aV2889
p1648
ag1646
aV673fed1a49
p1649
asV19008515250
p1650
(lp1651
I1
aV263
p1652
ag1650
aV928f1e92e0
p1653
asV9820702105
p1654
(lp1655
I8
aV7410
p1656
ag1654
aVfd31618ca9
p1657
asV35164816730
p1658
(lp1659
I5
aV4256
p1660
ag1658
aV2fa8085dae
p1661
asV9247065241
p1662
(lp1663
I4
aV3811
p1664
ag1662
aV2e9016cdd3
p1665
asV19238482312
p1666
(lp1667
I1
aV544
p1668
ag1666
aV986a568630
p1669
asV16542730269
p1670
(lp1671
I9
aV8615
p1672
ag1670
aVb0af5a6568
p1673
asV27348427330
p1674
(lp1675
I8
aV7107
p1676
ag1674
aV67b7d6e5a9
p1677
asV18621946294
p1678
(lp1679
I1
aV408
p1680
ag1678
aV03d69ee76b
p1681
asV23760372900
p1682
(lp1683
I6
aV5728
p1684
ag1682
aVbfa54971a0
p1685
asV19597114599
p1686
(lp1687
I1
aV414
p1688
ag1686
aVe5cc8a75d0
p1689
asV16610423002
p1690
(lp1691
I9
aV8613
p1692
ag1690
aV20b4536a5c
p1693
asV9050894893
p1694
(lp1695
I8
aV7397
p1696
ag1694
aV490975dee0
p1697
asV13972620741
p1698
(lp1699
I3
aV2904
p1700
ag1698
aVa3c8506d83
p1701
asV18621955084
p1702
(lp1703
I4
aV3790
p1704
ag1702
aVf252aa6d9b
p1705
asV33905652090
p1706
(lp1707
I3
aV2887
p1708
ag1706
aV7feb3cb94a
p1709
asV15178465853
p1710
(lp1711
I8
aV7540
p1712
ag1710
aV19fb6f37d4
p1713
asV33479373633
p1714
(lp1715
I3
aV2845
p1716
ag1714
aV1dd84cb01e
p1717
asV19218329656
p1718
(lp1719
I1
aV479
p1720
ag1718
aV2a22fbb5b8
p1721
asV14238321838
p1722
(lp1723
I3
aV2907
p1724
ag1722
aVdffd462f8c
p1725
asV14421150547
p1726
(lp1727
I6
aV5502
p1728
ag1726
aV6356880d18
p1729
asV16702944516
p1730
(lp1731
I9
aV8654
p1732
ag1730
aV3e9000e3e9
p1733
asV8654658018
p1734
(lp1735
I9
aV8123
p1736
ag1734
aV87cb61ca76
p1737
asV14400077701
p1738
(lp1739
I4
aV3919
p1740
ag1738
aV16bb74e7d4
p1741
asV18630740343
p1742
(lp1743
I4
aV3758
p1744
ag1742
aV6bea8a1b59
p1745
asV8655529535
p1746
(lp1747
I9
aV8109
p1748
ag1746
aV99b55a3594
p1749
asV14471721976
p1750
(lp1751
I4
aV3837
p1752
ag1750
aV3bdba1930f
p1753
asV19162816533
p1754
(lp1755
I4
aV3725
p1756
ag1754
aVcc2c083f9e
p1757
asV14670036889
p1758
(lp1759
I4
aV3853
p1760
ag1758
aVcba442271b
p1761
asV9215836235
p1762
(lp1763
I3
aV2821
p1764
ag1762
aVec2d00b1d6
p1765
asV24798603454
p1766
(lp1767
I2
aV1520
p1768
ag1766
aVb962273e55
p1769
asV18629628243
p1770
(lp1771
I1
aV435
p1772
ag1770
aVf140acd6bc
p1773
asV24237817734
p1774
(lp1775
I2
aV1568
p1776
ag1774
aVeb5abaa1ea
p1777
asV20040131961
p1778
(lp1779
I1
aV367
p1780
ag1778
aV76a4e5f4e2
p1781
asV14463405495
p1782
(lp1783
I4
aV3889
p1784
ag1782
aVa499ea86fe
p1785
asV12692510543
p1786
(lp1787
I4
aV3819
p1788
ag1786
aVa35ee693c5
p1789
asV18621948264
p1790
(lp1791
I1
aV273
p1792
ag1790
aV5b52b178fe
p1793
asV19244408145
p1794
(lp1795
I1
aV449
p1796
ag1794
aV50ba1f5ba8
p1797
asV19198227736
p1798
(lp1799
I4
aV3697
p1800
ag1798
aV7a510a06b7
p1801
asV8449317766
p1802
(lp1803
I9
aV8189
p1804
ag1802
aV256abfa0d6
p1805
asV8499472514
p1806
(lp1807
I9
aV8092
p1808
ag1806
aVb4c2a4f16f
p1809
asV15033892313
p1810
(lp1811
I8
aV7484
p1812
ag1810
aV688242f683
p1813
asV14381785240
p1814
(lp1815
I6
aV5569
p1816
ag1814
aV54a1a4de3d
p1817
asV12140552194
p1818
(lp1819
I6
aV5548
p1820
ag1818
aVdefa72f93e
p1821
asV13478021375
p1822
(lp1823
I3
aV2880
p1824
ag1822
aVa20960626e
p1825
asV15979452785
p1826
(lp1827
I8
aV7550
p1828
ag1826
aV3e25fd3191
p1829
asV33123200034
p1830
(lp1831
I3
aV2863
p1832
ag1830
aV801d5b992a
p1833
asV15873980648
p1834
(lp1835
I8
aV7546
p1836
ag1834
aV33cc2d264d
p1837
asV16702936796
p1838
(lp1839
I9
aV8623
p1840
ag1838
aV7060629842
p1841
asV14308087577
p1842
(lp1843
I3
aV2936
p1844
ag1842
aV2aed4752d7
p1845
asV9345735073
p1846
(lp1847
I8
aV7357
p1848
ag1846
aV05ca78b2c9
p1849
asV13902520898
p1850
(lp1851
I3
aV2918
p1852
ag1850
aVaa25ac9ba0
p1853
asV8234698575
p1854
(lp1855
I9
aV8348
p1856
ag1854
aV876d5a65d0
p1857
asV33479380863
p1858
(lp1859
I5
aV4194
p1860
ag1858
aV55847fb4dd
p1861
asV9249878628
p1862
(lp1863
I8
aV7322
p1864
ag1862
aV6e3222e29f
p1865
asV19094057440
p1866
(lp1867
I1
aV471
p1868
ag1866
aV9e301776c9
p1869
asV9189769056
p1870
(lp1871
I8
aV7449
p1872
ag1870
aV896d211cee
p1873
asV8117667744
p1874
(lp1875
I9
aV8045
p1876
ag1874
aV25a50a0500
p1877
asV11675214564
p1878
(lp1879
I4
aV3751
p1880
ag1878
aV717513507d
p1881
asV12140147255
p1882
(lp1883
I6
aV5519
p1884
ag1882
aVc4e4f687af
p1885
asV14493273062
p1886
(lp1887
I6
aV5593
p1888
ag1886
aVafb09a7091
p1889
asV8531221241
p1890
(lp1891
I9
aV8378
p1892
ag1890
aV05f71a6fd5
p1893
asV20880619815
p1894
(lp1895
I6
aV5688
p1896
ag1894
aVd9784f9ecb
p1897
asV34249014426
p1898
(lp1899
I3
aV2947
p1900
ag1898
aV4e6e4d7cc9
p1901
asV8416052193
p1902
(lp1903
I9
aV8473
p1904
ag1902
aVd4bd5365e2
p1905
asV27827711642
p1906
(lp1907
I8
aV7433
p1908
ag1906
aV739f88e768
p1909
asV8235766038
p1910
(lp1911
I9
aV8488
p1912
ag1910
aV93b1649068
p1913
asV27033229810
p1914
(lp1915
I8
aV7367
p1916
ag1914
aV8cd5e285ce
p1917
asV8530696758
p1918
(lp1919
I9
aV8249
p1920
ag1918
aVa68a11451c
p1921
asV11335883915
p1922
(lp1923
I4
aV3741
p1924
ag1922
aV8b60096c15
p1925
asV24846468482
p1926
(lp1927
I2
aV1704
p1928
ag1926
aV09b2700bcb
p1929
asV16108895243
p1930
(lp1931
I9
aV8598
p1932
ag1930
aVee0df6aa68
p1933
asV34158564231
p1934
(lp1935
I5
aV4174
p1936
ag1934
aV60b572745b
p1937
asV19246584232
p1938
(lp1939
I1
aV521
p1940
ag1938
aV5d3c4a0e83
p1941
asV18623860893
p1942
(lp1943
I4
aV3685
p1944
ag1942
aV8ddd09bcc8
p1945
asV15818887502
p1946
(lp1947
I9
aV8543
p1948
ag1946
aVc887beeb00
p1949
asV16108886203
p1950
(lp1951
I9
aV8635
p1952
ag1950
aVe5197f1fbe
p1953
asV34132173652
p1954
(lp1955
I3
aV2819
p1956
ag1954
aV506605b8c7
p1957
asV19100256418
p1958
(lp1959
I1
aV459
p1960
ag1958
aV193128ded2
p1961
asV19238482922
p1962
(lp1963
I1
aV287
p1964
ag1962
aV53c0937916
p1965
asV15585160871
p1966
(lp1967
I4
aV3945
p1968
ag1966
aVbe3ab62e5a
p1969
asV18659187304
p1970
(lp1971
I1
aV499
p1972
ag1970
aV4f909d646a
p1973
asV9888926493
p1974
(lp1975
I6
aV5512
p1976
ag1974
aVa0bd9920ce
p1977
asV34248995486
p1978
(lp1979
I5
aV4165
p1980
ag1978
aVdb8fe83155
p1981
asV8234702531
p1982
(lp1983
I9
aV8202
p1984
ag1982
aVaae5709f17
p1985
asV8235753314
p1986
(lp1987
I9
aV8206
p1988
ag1986
aVf0712ea3ec
p1989
asV14543555500
p1990
(lp1991
I4
aV3837
p1992
ag1990
aVdba2c0bfb8
p1993
asV14238320018
p1994
(lp1995
I3
aV2918
p1996
ag1994
aV309463fb48
p1997
asV19218330686
p1998
(lp1999
I1
aV375
p2000
ag1998
aVb0ddf6dc5f
p2001
asV8930437393
p2002
(lp2003
I8
aV7437
p2004
ag2002
aV45026ccff1
p2005
asV18603755273
p2006
(lp2007
I1
aV325
p2008
ag2006
aV6013e812f8
p2009
asV19162934953
p2010
(lp2011
I4
aV3687
p2012
ag2010
aV7198c327cb
p2013
asV16521551457
p2014
(lp2015
I9
aV8660
p2016
ag2014
aV3ef8fc7446
p2017
asV8235748650
p2018
(lp2019
I9
aV8479
p2020
ag2018
aVf2091f909e
p2021
asV17029442837
p2022
(lp2023
I8
aV7629
p2024
ag2022
aVc93d36088b
p2025
asV14494703035
p2026
(lp2027
I3
aV2929
p2028
ag2026
aVd80027f2d6
p2029
asV29004876030
p2030
(lp2031
I9
aV8109
p2032
ag2030
aVd2ff2a99ee
p2033
asV23770050019
p2034
(lp2035
I2
aV1511
p2036
ag2034
aV0a5680779f
p2037
asV14494554975
p2038
(lp2039
I6
aV5555
p2040
ag2038
aVcb4c01504d
p2041
asV8104693095
p2042
(lp2043
I9
aV8465
p2044
ag2042
aVba23273e82
p2045
asV13923023097
p2046
(lp2047
I6
aV5238
p2048
ag2046
aVb133dd46e1
p2049
asV19058347036
p2050
(lp2051
I1
aV294
p2052
ag2050
aV7687eb148e
p2053
asV19244745822
p2054
(lp2055
I1
aV379
p2056
ag2054
aVf5c9b4d310
p2057
asV8235759688
p2058
(lp2059
I9
aV8065
p2060
ag2058
aVf21b71dd4e
p2061
asV14732631554
p2062
(lp2063
I6
aV5575
p2064
ag2062
aV189e4ec12e
p2065
asV14433726703
p2066
(lp2067
I3
aV2916
p2068
ag2066
aV2a5225b661
p2069
asV13478617554
p2070
(lp2071
I4
aV3783
p2072
ag2070
aV0e1f190f89
p2073
asV19238477472
p2074
(lp2075
I1
aV551
p2076
ag2074
aVc46e5c84f6
p2077
asV14308053350
p2078
(lp2079
I6
aV5527
p2080
ag2078
aV17a98f503a
p2081
asV19238477372
p2082
(lp2083
I1
aV268
p2084
ag2082
aVd60c9ba33f
p2085
asV14216814328
p2086
(lp2087
I4
aV3883
p2088
ag2086
aVe0f05473a0
p2089
asV19244407355
p2090
(lp2091
I1
aV494
p2092
ag2090
aV61268ec9c5
p2093
asV23288812479
p2094
(lp2095
I1
aV625
p2096
ag2094
aV1df33e09e2
p2097
asV19793417016
p2098
(lp2099
I1
aV495
p2100
ag2098
aVa94f2d9aff
p2101
asV16108883103
p2102
(lp2103
I9
aV8609
p2104
ag2102
aVcd833cab2c
p2105
asV18241779254
p2106
(lp2107
I6
aV5586
p2108
ag2106
aVe7e8e7786f
p2109
asV26828288790
p2110
(lp2111
I8
aV7793
p2112
ag2110
aV6607526a24
p2113
asV14238319020
p2114
(lp2115
I3
aV2902
p2116
ag2114
aVa469c39351
p2117
asV30457957315
p2118
(lp2119
I9
aV8645
p2120
ag2118
aVf47489dd78
p2121
asV14493630362
p2122
(lp2123
I6
aV5521
p2124
ag2122
aVdce0676f1e
p2125
asV17904782934
p2126
(lp2127
I9
aV8891
p2128
ag2126
aV4978f15430
p2129
asV10046962944
p2130
(lp2131
I6
aV5484
p2132
ag2130
aV7648a5c6d8
p2133
asV8095370274
p2134
(lp2135
I9
aV8475
p2136
ag2134
aV1e662390fe
p2137
asV8868874131
p2138
(lp2139
I8
aV7294
p2140
ag2138
aVc269448d0a
p2141
asV8235763896
p2142
(lp2143
I9
aV8337
p2144
ag2142
aV567b8d2897
p2145
asV34663679394
p2146
(lp2147
I5
aV4216
p2148
ag2146
aV2ec9a762f8
p2149
asV8234696039
p2150
(lp2151
I9
aV8070
p2152
ag2150
aVf817fcb3ff
p2153
asV34724467234
p2154
(lp2155
I5
aV4212
p2156
ag2154
aVbc38bea28f
p2157
asV19066463879
p2158
(lp2159
I1
aV388
p2160
ag2158
aV06cf071dbc
p2161
asV8335377111
p2162
(lp2163
I9
aV8493
p2164
ag2162
aVaa8a26bb95
p2165
asV10851002643
p2166
(lp2167
I6
aV5475
p2168
ag2166
aV732ec063a8
p2169
asV33479345543
p2170
(lp2171
I3
aV2828
p2172
ag2170
aVe33ce115c8
p2173
asV19056831878
p2174
(lp2175
I1
aV484
p2176
ag2174
aV4363ecd64b
p2177
asV19078940822
p2178
(lp2179
I1
aV353
p2180
ag2178
aV0223854400
p2181
asV8538364946
p2182
(lp2183
I9
aV8243
p2184
ag2182
aVca27b21ebf
p2185
asV13896196106
p2186
(lp2187
I4
aV3731
p2188
ag2186
aV9bf4893a82
p2189
asV34158423521
p2190
(lp2191
I3
aV2810
p2192
ag2190
aVc7d78cd561
p2193
asV11674840435
p2194
(lp2195
I8
aV7419
p2196
ag2194
aVdc366d9f4d
p2197
asV35032659102
p2198
(lp2199
I5
aV4252
p2200
ag2198
aV3a2c807338
p2201
asV9712963042
p2202
(lp2203
I4
aV3803
p2204
ag2202
aV7ac98e6440
p2205
asV19058280739
p2206
(lp2207
I1
aV557
p2208
ag2206
aVc6082639a4
p2209
asV14493403604
p2210
(lp2211
I3
aV2938
p2212
ag2210
aVe79bb62f11
p2213
asV19248216091
p2214
(lp2215
I1
aV285
p2216
ag2214
aVa2bf739eca
p2217
asV9249833020
p2218
(lp2219
I4
aV3801
p2220
ag2218
aV7499f01659
p2221
asV13787638005
p2222
(lp2223
I8
aV7034
p2224
ag2222
aVc9a3c356c5
p2225
asV15505078443
p2226
(lp2227
I8
aV7526
p2228
ag2226
aV2e8cb943b1
p2229
asV24562045120
p2230
(lp2231
I2
aV1575
p2232
ag2230
aVb50ef61fae
p2233
asV18659189604
p2234
(lp2235
I4
aV3926
p2236
ag2234
aV2bc6ae85e1
p2237
asV8724623084
p2238
(lp2239
I8
aV7457
p2240
ag2238
aVc0cee52222
p2241
asV19776566952
p2242
(lp2243
I1
aV443
p2244
ag2242
aV9d9b687d21
p2245
asV18621956744
p2246
(lp2247
I1
aV278
p2248
ag2246
aV7c34231c4f
p2249
asV16082510899
p2250
(lp2251
I8
aV7582
p2252
ag2250
aV7bc10475ea
p2253
asV19244414505
p2254
(lp2255
I1
aV357
p2256
ag2254
aVa5423a711e
p2257
asV14360163048
p2258
(lp2259
I4
aV3850
p2260
ag2258
aVdb6c3bf0d4
p2261
asV19215467015
p2262
(lp2263
I1
aV385
p2264
ag2262
aVeb80f9af54
p2265
asV16423874688
p2266
(lp2267
I9
aV8587
p2268
ag2266
aV1aeeb55ffa
p2269
asV8656629024
p2270
(lp2271
I9
aV8114
p2272
ag2270
aV1240b85b6b
p2273
asV33367347632
p2274
(lp2275
I3
aV2811
p2276
ag2274
aVbc7ef4b6b8
p2277
asV14505459509
p2278
(lp2279
I3
aV2933
p2280
ag2278
aV31aa2a0811
p2281
asV19250448615
p2282
(lp2283
I4
aV3931
p2284
ag2282
aVed4edf673c
p2285
asV14283477569
p2286
(lp2287
I3
aV2900
p2288
ag2286
aV83aa51b2f2
p2289
asV8658988193
p2290
(lp2291
I9
aV8112
p2292
ag2290
aVe1fca035a8
p2293
asV8234707973
p2294
(lp2295
I9
aV8481
p2296
ag2294
aVc07c9c5e08
p2297
asV18600585794
p2298
(lp2299
I1
aV420
p2300
ag2298
aVe13d02ba6c
p2301
asV14568505196
p2302
(lp2303
I4
aV3841
p2304
ag2302
aVa83f637802
p2305
asV9820688174
p2306
(lp2307
I3
aV2876
p2308
ag2306
aVf74eecaa78
p2309
asV8654664980
p2310
(lp2311
I9
aV8110
p2312
ag2310
aV66ba510ec4
p2313
asV18623857503
p2314
(lp2315
I4
aV3685
p2316
ag2314
aV8725c5ab3f
p2317
asV16352671846
p2318
(lp2319
I9
aV8604
p2320
ag2318
aV9fed7bb26d
p2321
asV9820702865
p2322
(lp2323
I6
aV5536
p2324
ag2322
aVb9f6a48183
p2325
asV8146955881
p2326
(lp2327
I9
aV8475
p2328
ag2326
aVfa6521e4be
p2329
asV23917412004
p2330
(lp2331
I2
aV1622
p2332
ag2330
aV12675d2d0b
p2333
asV8235770634
p2334
(lp2335
I9
aV8340
p2336
ag2334
aV3891481366
p2337
asV8180017553
p2338
(lp2339
I9
aV8207
p2340
ag2338
aV6b933c3b9e
p2341
asV17188681071
p2342
(lp2343
I9
aV8810
p2344
ag2342
aV50f92d9efb
p2345
asV18673996679
p2346
(lp2347
I6
aV5525
p2348
ag2346
aVdeb56dc1ec
p2349
asV34248997826
p2350
(lp2351
I3
aV2816
p2352
ag2350
aVf5f5bf429b
p2353
asV31004177990
p2354
(lp2355
I6
aV5565
p2356
ag2354
aVc403cd5162
p2357
asV19249495882
p2358
(lp2359
I1
aV277
p2360
ag2358
aV2df46f8f4c
p2361
asV19616513109
p2362
(lp2363
I1
aV381
p2364
ag2362
aV8e9d312214
p2365
asV18896919458
p2366
(lp2367
I4
aV3870
p2368
ag2366
aV9a4cfaed6d
p2369
asV8656623918
p2370
(lp2371
I9
aV8111
p2372
ag2370
aV57333997e1
p2373
asV14984763078
p2374
(lp2375
I4
aV3920
p2376
ag2374
aV11cb05ce80
p2377
asV27820077362
p2378
(lp2379
I8
aV7358
p2380
ag2378
aV64cacef0be
p2381
asV8104708182
p2382
(lp2383
I9
aV8334
p2384
ag2382
aV0dc997b79f
p2385
asV20988218596
p2386
(lp2387
I6
aV5821
p2388
ag2386
aV50ce2f6dfe
p2389
asV16403743137
p2390
(lp2391
I9
aV8590
p2392
ag2390
aV563d341846
p2393
asV16541281568
p2394
(lp2395
I9
aV8583
p2396
ag2394
aV2e0ace90d3
p2397
asV24872087492
p2398
(lp2399
I2
aV1542
p2400
ag2398
aV09ab3fbb6b
p2401
asV8234694713
p2402
(lp2403
I9
aV8060
p2404
ag2402
aVcc4f885aa9
p2405
asV8234704677
p2406
(lp2407
I9
aV8057
p2408
ag2406
aV6f93eac96c
p2409
asV19244412435
p2410
(lp2411
I1
aV295
p2412
ag2410
aVd7921e7303
p2413
asV21771203228
p2414
(lp2415
I1
aV752
p2416
ag2414
aV967c997438
p2417
asV8120122751
p2418
(lp2419
I9
aV8054
p2420
ag2418
aV6aef247a2f
p2421
asV8235767554
p2422
(lp2423
I9
aV8068
p2424
ag2422
aVe0f565fb8e
p2425
asV14132674422
p2426
(lp2427
I8
aV7338
p2428
ag2426
aV00830ec948
p2429
asV16727613141
p2430
(lp2431
I9
aV8586
p2432
ag2430
aV649efb07c9
p2433
asV33808627522
p2434
(lp2435
I3
aV2819
p2436
ag2434
aVd9d1179c63
p2437
asV8235756732
p2438
(lp2439
I9
aV8340
p2440
ag2438
aV6c70a63a0c
p2441
asV12692950664
p2442
(lp2443
I8
aV7421
p2444
ag2442
aV632549ca2d
p2445
asV14514506863
p2446
(lp2447
I3
aV2912
p2448
ag2446
aV06bee737eb
p2449
asV16955896572
p2450
(lp2451
I9
aV8742
p2452
ag2450
aV95e8fcab61
p2453
asV29504260134
p2454
(lp2455
I8
aV7574
p2456
ag2454
aV54777730b0
p2457
asV14129994567
p2458
(lp2459
I3
aV2905
p2460
ag2458
aV5328f8cd8b
p2461
asV18869019106
p2462
(lp2463
I6
aV5568
p2464
ag2462
aVabda184a7d
p2465
asV15654864142
p2466
(lp2467
I4
aV3943
p2468
ag2466
aV11f2acb428
p2469
asV19788481971
p2470
(lp2471
I4
aV3765
p2472
ag2470
aV26ee67882f
p2473
asV16140985797
p2474
(lp2475
I9
aV8590
p2476
ag2474
aV235d5863e9
p2477
asV20043077964
p2478
(lp2479
I1
aV711
p2480
ag2478
aVa57ec9d806
p2481
asV19466337330
p2482
(lp2483
I1
aV428
p2484
ag2482
aV2fb6be1f1b
p2485
asV8186357048
p2486
(lp2487
I9
aV8338
p2488
ag2486
aVa8606eb62f
p2489
asV8234705299
p2490
(lp2491
I9
aV8350
p2492
ag2490
aV52c4de8d08
p2493
asV19281663245
p2494
(lp2495
I1
aV443
p2496
ag2494
aVba724e8329
p2497
asV14514666533
p2498
(lp2499
I4
aV3841
p2500
ag2498
aVe8fc35bf5b
p2501
asV17912524884
p2502
(lp2503
I9
aV8868
p2504
ag2502
aV0d8080348a
p2505
asV14238322630
p2506
(lp2507
I4
aV3923
p2508
ag2506
aV8082507dec
p2509
asV14367365163
p2510
(lp2511
I4
aV3872
p2512
ag2510
aV1bdacdd231
p2513
asV19218319366
p2514
(lp2515
I1
aV384
p2516
ag2514
aV6c8788f7f7
p2517
asV13498650183
p2518
(lp2519
I3
aV2888
p2520
ag2518
aV22298d7f0d
p2521
asV19244419105
p2522
(lp2523
I1
aV255
p2524
ag2522
aV4470eeff07
p2525
asV13481037553
p2526
(lp2527
I4
aV3736
p2528
ag2526
aV8eb11f7604
p2529
asV14307751760
p2530
(lp2531
I3
aV2908
p2532
ag2530
aV78480e4246
p2533
asV8235773028
p2534
(lp2535
I9
aV8205
p2536
ag2534
aV7b69059f1f
p2537
asV14276794650
p2538
(lp2539
I4
aV3875
p2540
ag2538
aV62967ff563
p2541
asV35907962331
p2542
(lp2543
I5
aV4311
p2544
ag2542
aV3fed9df514
p2545
asV19056836048
p2546
(lp2547
I1
aV361
p2548
ag2546
aV40cd3c710a
p2549
asV19285570511
p2550
(lp2551
I1
aV314
p2552
ag2550
aVe24f1351d4
p2553
asV9820777653
p2554
(lp2555
I8
aV7340
p2556
ag2554
aV85c870d6c8
p2557
asV8709854323
p2558
(lp2559
I9
aV8120
p2560
ag2558
aVf0220c59e7
p2561
asV27831632436
p2562
(lp2563
I8
aV7110
p2564
ag2562
aVaaf33ccd2a
p2565
asV16762679469
p2566
(lp2567
I8
aV7622
p2568
ag2566
aV1dd0b391f9
p2569
asV25454071653
p2570
(lp2571
I2
aV1559
p2572
ag2570
aVa700dcc62e
p2573
asV9117612259
p2574
(lp2575
I8
aV7368
p2576
ag2574
aV40411c9724
p2577
asV19090392659
p2578
(lp2579
I4
aV3898
p2580
ag2578
aVf05111835c
p2581
asV14734707622
p2582
(lp2583
I6
aV5579
p2584
ag2582
aV3d26ef5acd
p2585
asV13972591571
p2586
(lp2587
I8
aV7327
p2588
ag2586
aVc4897e9c79
p2589
asV33905810570
p2590
(lp2591
I3
aV2887
p2592
ag2590
aV7d4082233f
p2593
asV33905679430
p2594
(lp2595
I3
aV2879
p2596
ag2594
aV1b50e82181
p2597
asV19056836318
p2598
(lp2599
I1
aV392
p2600
ag2598
aVd7727a2ca1
p2601
asV19217184782
p2602
(lp2603
I1
aV474
p2604
ag2602
aVa48dc3a0f8
p2605
asV22063491862
p2606
(lp2607
I1
aV619
p2608
ag2606
aVe09841cfc1
p2609
asV9247042927
p2610
(lp2611
I8
aV7449
p2612
ag2610
aVb4345905dc
p2613
asV34132172572
p2614
(lp2615
I3
aV2851
p2616
ag2614
aV1f9583598b
p2617
asV19248590892
p2618
(lp2619
I1
aV560
p2620
ag2618
aV685eb3aa33
p2621
asV31004178540
p2622
(lp2623
I6
aV5653
p2624
ag2622
aV0d74e06c10
p2625
asV19036738968
p2626
(lp2627
I1
aV435
p2628
ag2626
aV37df204d1b
p2629
asV14493183624
p2630
(lp2631
I3
aV2925
p2632
ag2630
aV6e8a12d987
p2633
asV8480772072
p2634
(lp2635
I9
aV8103
p2636
ag2634
aVce7963661e
p2637
asV10549872333
p2638
(lp2639
I3
aV2889
p2640
ag2638
aV28c12031c6
p2641
asV13941659923
p2642
(lp2643
I4
aV3691
p2644
ag2642
aV80c026159f
p2645
asV28424212451
p2646
(lp2647
I9
aV8704
p2648
ag2646
aV58bab247c0
p2649
asV8654654504
p2650
(lp2651
I9
aV8246
p2652
ag2650
aV101fe026e9
p2653
asV8315532431
p2654
(lp2655
I9
aV8493
p2656
ag2654
aV08a0afcd4a
p2657
asV33836677391
p2658
(lp2659
I3
aV2824
p2660
ag2658
aVc612842332
p2661
asV16251595878
p2662
(lp2663
I8
aV7376
p2664
ag2662
aV730b366222
p2665
asV9054552482
p2666
(lp2667
I4
aV3755
p2668
ag2666
aV41bcbd9d86
p2669
asV9183148588
p2670
(lp2671
I3
aV2835
p2672
ag2670
aV4f138e218f
p2673
asV10048649965
p2674
(lp2675
I4
aV3676
p2676
ag2674
aVdcb2d2d8ca
p2677
asV16521554527
p2678
(lp2679
I9
aV8585
p2680
ag2678
aV2f66a7f13f
p2681
asV9120597678
p2682
(lp2683
I6
aV5323
p2684
ag2682
aV5da557d510
p2685
asV18621950764
p2686
(lp2687
I1
aV501
p2688
ag2686
aV30d07bbd68
p2689
asV19227227316
p2690
(lp2691
I1
aV501
p2692
ag2690
aV73ac31d3cc
p2693
asV15928489352
p2694
(lp2695
I8
aV7466
p2696
ag2694
aV0a54a527d3
p2697
asV30244685001
p2698
(lp2699
I9
aV8597
p2700
ag2698
aV920896b97b
p2701
asV8559670483
p2702
(lp2703
I9
aV8524
p2704
ag2702
aV0a2bbc2d2d
p2705
asV9449894414
p2706
(lp2707
I4
aV3777
p2708
ag2706
aV1fe5bd5e96
p2709
asV16661804166
p2710
(lp2711
I9
aV8599
p2712
ag2710
aVfef4c02ab4
p2713
asV9180761449
p2714
(lp2715
I6
aV5349
p2716
ag2714
aV9fa09396c1
p2717
asV16198192178
p2718
(lp2719
I8
aV7454
p2720
ag2718
aV59cd91cd70
p2721
asV34282851320
p2722
(lp2723
I5
aV4155
p2724
ag2722
aV791da912fc
p2725
asV23427739404
p2726
(lp2727
I2
aV1596
p2728
ag2726
aV47c387a908
p2729
asV16106522494
p2730
(lp2731
I9
aV8641
p2732
ag2730
aV08a1c7a87c
p2733
asV8234683951
p2734
(lp2735
I9
aV8488
p2736
ag2734
aV2674b593af
p2737
asV9820687764
p2738
(lp2739
I8
aV7312
p2740
ag2738
aV8a27bebd7d
p2741
asV14609360927
p2742
(lp2743
I6
aV5551
p2744
ag2742
aV78e2f981bc
p2745
asV20028630140
p2746
(lp2747
I4
aV3736
p2748
ag2746
aVef426319d5
p2749
asV19100275778
p2750
(lp2751
I1
aV420
p2752
ag2750
aVcc8860a5a8
p2753
asV18707564240
p2754
(lp2755
I1
aV255
p2756
ag2754
aVe2c1929118
p2757
asV21529387539
p2758
(lp2759
I1
aV744
p2760
ag2758
aV1e3f98b9f0
p2761
asV27748548260
p2762
(lp2763
I8
aV7708
p2764
ag2762
aVc36cb04199
p2765
asV14514666313
p2766
(lp2767
I3
aV2918
p2768
ag2766
aV63fe148dab
p2769
asV14403449045
p2770
(lp2771
I4
aV3905
p2772
ag2770
aV54c44870d2
p2773
asV19228597916
p2774
(lp2775
I1
aV276
p2776
ag2774
aV56ec6263a0
p2777
asV19238488382
p2778
(lp2779
I1
aV506
p2780
ag2778
aVcc8f150898
p2781
asV33447923094
p2782
(lp2783
I3
aV2824
p2784
ag2782
aVfb13d65ec0
p2785
asV18623856253
p2786
(lp2787
I1
aV440
p2788
ag2786
aV290b1a32cf
p2789
asV35555432205
p2790
(lp2791
I5
aV4256
p2792
ag2790
aV5eff5f11b8
p2793
asV14423786434
p2794
(lp2795
I4
aV3845
p2796
ag2794
aVe0c1907a82
p2797
asV12573548495
p2798
(lp2799
I6
aV5496
p2800
ag2798
aV863bf8a604
p2801
asV19248215411
p2802
(lp2803
I1
aV330
p2804
ag2802
aV90334c86be
p2805
asV9053513590
p2806
(lp2807
I8
aV7305
p2808
ag2806
aV89d3468b0a
p2809
asV10847521513
p2810
(lp2811
I8
aV7454
p2812
ag2810
aV9f6f69d460
p2813
asV19056844018
p2814
(lp2815
I4
aV3884
p2816
ag2814
aVde82cf57c8
p2817
asV33447880984
p2818
(lp2819
I3
aV2888
p2820
ag2818
aV57634cb00f
p2821
asV14357338120
p2822
(lp2823
I4
aV3882
p2824
ag2822
aV9b2fe1d740
p2825
asV19244417245
p2826
(lp2827
I1
aV456
p2828
ag2826
aVb85c1a7712
p2829
asV34663678794
p2830
(lp2831
I5
aV4236
p2832
ag2830
aVdee3e0ea2b
p2833
asV8604599631
p2834
(lp2835
I9
aV8123
p2836
ag2834
aV34e5ea9a15
p2837
asV9182964268
p2838
(lp2839
I6
aV5511
p2840
ag2838
aVb6a15190c9
p2841
asV9017670857
p2842
(lp2843
I3
aV2841
p2844
ag2842
aV461a850215
p2845
asV25783386130
p2846
(lp2847
I2
aV1670
p2848
ag2846
aV8268acc8ac
p2849
asV19253579995
p2850
(lp2851
I1
aV257
p2852
ag2850
aV3affd579b2
p2853
asV14355852811
p2854
(lp2855
I4
aV3870
p2856
ag2854
aV0c0215b57a
p2857
asV8234689789
p2858
(lp2859
I9
aV8199
p2860
ag2858
aVc48688e827
p2861
asV19068310619
p2862
(lp2863
I1
aV319
p2864
ag2862
aVdf03692ac4
p2865
asV8234700359
p2866
(lp2867
I9
aV8206
p2868
ag2866
aV6c3282b650
p2869
asV19662214842
p2870
(lp2871
I4
aV3692
p2872
ag2870
aV95de2f7137
p2873
asV19228010986
p2874
(lp2875
I1
aV368
p2876
ag2874
aVf3842b7b33
p2877
asV8235747508
p2878
(lp2879
I9
aV8478
p2880
ag2878
aVe5f0cb5c8b
p2881
asV34249013406
p2882
(lp2883
I5
aV4167
p2884
ag2882
aVe5752eaf2f
p2885
asV14493495712
p2886
(lp2887
I4
aV3883
p2888
ag2886
aVfb37dd3afc
p2889
asV19056844068
p2890
(lp2891
I1
aV353
p2892
ag2890
aVf9723a7bac
p2893
asV24579565739
p2894
(lp2895
I2
aV1608
p2896
ag2894
aV8902c82d4d
p2897
asV18659187174
p2898
(lp2899
I1
aV293
p2900
ag2898
aV5e06a42736
p2901
asV19058278919
p2902
(lp2903
I1
aV454
p2904
ag2902
aV3f8b4edecd
p2905
asV19066845078
p2906
(lp2907
I1
aV283
p2908
ag2906
aV94f4c1762b
p2909
asV33509036134
p2910
(lp2911
I3
aV2851
p2912
ag2910
aVbd83d242fc
p2913
asV8650655954
p2914
(lp2915
I9
aV8246
p2916
ag2914
aV00ec9d04d2
p2917
asV14401794096
p2918
(lp2919
I4
aV3879
p2920
ag2918
aVf0ba14202d
p2921
asV9180723999
p2922
(lp2923
I8
aV7338
p2924
ag2922
aVb99dd2535f
p2925
asV19094058120
p2926
(lp2927
I1
aV288
p2928
ag2926
aVc323ddb793
p2929
asV26629751242
p2930
(lp2931
I2
aV1555
p2932
ag2930
aV7f4934079d
p2933
asV26967182493
p2934
(lp2935
I8
aV7081
p2936
ag2934
aVb0e49e80c9
p2937
asV16541416260
p2938
(lp2939
I9
aV8641
p2940
ag2938
aV91f25cf044
p2941
asV14423625642
p2942
(lp2943
I6
aV5543
p2944
ag2942
aV6d2b086457
p2945
asV11977665486
p2946
(lp2947
I8
aV7309
p2948
ag2946
aVfb3bf99ded
p2949
asV18623857613
p2950
(lp2951
I1
aV270
p2952
ag2950
aVe811549efd
p2953
asV8146313872
p2954
(lp2955
I9
aV8191
p2956
ag2954
aVf5c691e3f5
p2957
asV9345735255
p2958
(lp2959
I8
aV7297
p2960
ag2958
aVc232ff1f33
p2961
asV14381835449
p2962
(lp2963
I4
aV3901
p2964
ag2962
aV3ec2f217b2
p2965
asV9028740089
p2966
(lp2967
I8
aV7326
p2968
ag2966
aV86e9764dec
p2969
asV16301384744
p2970
(lp2971
I8
aV7655
p2972
ag2970
aV3fb9daf095
p2973
asV19776561782
p2974
(lp2975
I1
aV280
p2976
ag2974
aVced5c3e1ff
p2977
asV14494399715
p2978
(lp2979
I4
aV3925
p2980
ag2978
aVeb6069d47b
p2981
asV9958998035
p2982
(lp2983
I8
aV7387
p2984
ag2982
aV5e28476cbb
p2985
asV9249884912
p2986
(lp2987
I6
aV5496
p2988
ag2986
aV7c64fb3d31
p2989
asV27761854625
p2990
(lp2991
I8
aV7472
p2992
ag2990
aV16abbbd187
p2993
asV25062967649
p2994
(lp2995
I2
aV1576
p2996
ag2994
aV3ea73fe598
p2997
asV19297993582
p2998
(lp2999
I1
aV539
p3000
ag2998
aVe44f2ea020
p3001
asV14565085921
p3002
(lp3003
I3
aV2933
p3004
ag3002
aVffb38a5a00
p3005
asV18681614404
p3006
(lp3007
I1
aV490
p3008
ag3006
aVc5de1ec588
p3009
asV9652428398
p3010
(lp3011
I6
aV5494
p3012
ag3010
aVecc5cd7ca8
p3013
asV19067536679
p3014
(lp3015
I1
aV355
p3016
ag3014
aV00a2b833ea
p3017
asV19238479112
p3018
(lp3019
I1
aV305
p3020
ag3018
aV37452d4c21
p3021
asV19058276129
p3022
(lp3023
I1
aV389
p3024
ag3022
aV66324a37d5
p3025
asV8119429089
p3026
(lp3027
I9
aV8476
p3028
ag3026
aVea68dd6eae
p3029
asV33479382163
p3030
(lp3031
I3
aV2864
p3032
ag3030
aVdbcc59ace8
p3033
asV20915345930
p3034
(lp3035
I6
aV5821
p3036
ag3034
aVfa2199f915
p3037
asV13903915496
p3038
(lp3039
I6
aV5549
p3040
ag3038
aVed108f2d5f
p3041
asV14423785334
p3042
(lp3043
I6
aV5540
p3044
ag3042
aVd570c17b29
p3045
asV9247092421
p3046
(lp3047
I3
aV2885
p3048
ag3046
aV1bf29d964e
p3049
asV18682570173
p3050
(lp3051
I1
aV485
p3052
ag3050
aV05765ed275
p3053
asV15537056969
p3054
(lp3055
I4
aV3947
p3056
ag3054
aVbe7972c599
p3057
asV27619832952
p3058
(lp3059
I8
aV7668
p3060
ag3058
aV6e98c324dd
p3061
asV9249865866
p3062
(lp3063
I3
aV2870
p3064
ag3062
aV58e5dd2375
p3065
asV15610993977
p3066
(lp3067
I9
aV8417
p3068
ag3066
aV167579703c
p3069
asV9090859044
p3070
(lp3071
I8
aV7337
p3072
ag3070
aVea174464be
p3073
asV30713428655
p3074
(lp3075
I6
aV5516
p3076
ag3074
aV8650a1a193
p3077
asV11197665045
p3078
(lp3079
I6
aV5479
p3080
ag3078
aV976e2d0384
p3081
asV9820776523
p3082
(lp3083
I6
aV5443
p3084
ag3082
aV62e616a8ed
p3085
asV16727620861
p3086
(lp3087
I9
aV8602
p3088
ag3086
aVbd49e726ed
p3089
asV30457433825
p3090
(lp3091
I6
aV5811
p3092
ag3090
aV29fe02cf7a
p3093
asV20101220329
p3094
(lp3095
I4
aV3735
p3096
ag3094
aV8ee0063271
p3097
asV9249820550
p3098
(lp3099
I6
aV5498
p3100
ag3098
aV53f6ed2999
p3101
asV31081397550
p3102
(lp3103
I6
aV5554
p3104
ag3102
aV929eaef1d5
p3105
asV34139505540
p3106
(lp3107
I5
aV4172
p3108
ag3106
aVa195503826
p3109
asV14523658736
p3110
(lp3111
I4
aV3853
p3112
ag3110
aV04d43ba652
p3113
asV9512616834
p3114
(lp3115
I8
aV7330
p3116
ag3114
aV5f0ac3999f
p3117
asV18603758873
p3118
(lp3119
I4
aV3694
p3120
ag3118
aVbaa9b3677c
p3121
asV14563957762
p3122
(lp3123
I4
aV3912
p3124
ag3122
aV1cfffde228
p3125
asV8146315092
p3126
(lp3127
I9
aV8472
p3128
ag3126
aV9fff7ac082
p3129
asV19238489162
p3130
(lp3131
I1
aV282
p3132
ag3130
aV68b63b6c4f
p3133
asV16728840625
p3134
(lp3135
I9
aV8653
p3136
ag3134
aV2a0a531a41
p3137
asV8234381105
p3138
(lp3139
I9
aV8338
p3140
ag3138
aV99d2d5c4f6
p3141
asV8849136379
p3142
(lp3143
I6
aV5323
p3144
ag3142
aV486b1a40af
p3145
asV33401235726
p3146
(lp3147
I4
aV3924
p3148
ag3146
aV8f9a8dd7f4
p3149
asV18599527693
p3150
(lp3151
I1
aV369
p3152
ag3150
aVc5317d01e7
p3153
asV12692598173
p3154
(lp3155
I8
aV7377
p3156
ag3154
aVb69876b8c1
p3157
asV8501704897
p3158
(lp3159
I9
aV8242
p3160
ag3158
aV75f8ccbfc2
p3161
asV16732386497
p3162
(lp3163
I8
aV7602
p3164
ag3162
aVc5900d3fb9
p3165
asV9183018972
p3166
(lp3167
I6
aV5325
p3168
ag3166
aV8cb94b07a9
p3169
asV33817374842
p3170
(lp3171
I4
aV3954
p3172
ag3170
aVf53314240f
p3173
asV19250901335
p3174
(lp3175
I1
aV473
p3176
ag3174
aVf50e5cc786
p3177
asV15814327398
p3178
(lp3179
I8
aV7551
p3180
ag3178
aV6b2c34c96c
p3181
asV20726928042
p3182
(lp3183
I1
aV694
p3184
ag3182
aVdb162de5d9
p3185
asV19087853501
p3186
(lp3187
I1
aV423
p3188
ag3186
aV3e6b4b38d4
p3189
asV8235771396
p3190
(lp3191
I9
aV8488
p3192
ag3190
aVd6631562aa
p3193
asV18764479954
p3194
(lp3195
I1
aV265
p3196
ag3194
aVd36b479c8e
p3197
asV19248425072
p3198
(lp3199
I4
aV3906
p3200
ag3198
aV1a4e3f3fb3
p3201
asV14423626382
p3202
(lp3203
I6
aV5313
p3204
ag3202
aV2cd85233c4
p3205
asV15272259944
p3206
(lp3207
I8
aV7555
p3208
ag3206
aVe330fc2968
p3209
asV16766690873
p3210
(lp3211
I9
aV8773
p3212
ag3210
aV7d84d5cf36
p3213
asV19078932782
p3214
(lp3215
I1
aV288
p3216
ag3214
aV5884482bb0
p3217
asV13896060356
p3218
(lp3219
I8
aV7110
p3220
ag3218
aV5bda97829e
p3221
asV19253857835
p3222
(lp3223
I1
aV483
p3224
ag3222
aV74a3f4afdd
p3225
asV14364073537
p3226
(lp3227
I6
aV5474
p3228
ag3226
aVdb466c1f73
p3229
asV14351194008
p3230
(lp3231
I6
aV5552
p3232
ag3230
aVfef064a9f3
p3233
asV8471492819
p3234
(lp3235
I9
aV8112
p3236
ag3234
aV27a2ab50c2
p3237
asV19064488670
p3238
(lp3239
I1
aV529
p3240
ag3238
aV26dbe67197
p3241
asV8235769984
p3242
(lp3243
I9
aV8341
p3244
ag3242
aV26a793cb9a
p3245
asV15578906975
p3246
(lp3247
I6
aV5607
p3248
ag3246
aV79eae567ca
p3249
asV8235761926
p3250
(lp3251
I9
aV8346
p3252
ag3250
aV837b6c97bd
p3253
asV14514508703
p3254
(lp3255
I6
aV5594
p3256
ag3254
aV7617f320fd
p3257
asV23468174832
p3258
(lp3259
I6
aV5629
p3260
ag3258
aV9683b21c77
p3261
asV8654667782
p3262
(lp3263
I9
aV8251
p3264
ag3262
aV394551a8d1
p3265
asV14402329474
p3266
(lp3267
I6
aV5535
p3268
ag3266
aV5c2ae6ca21
p3269
asV8146602336
p3270
(lp3271
I9
aV8470
p3272
ag3270
aVa37d9808ec
p3273
asV18621955954
p3274
(lp3275
I1
aV482
p3276
ag3274
aV4747998e87
p3277
asV8234686963
p3278
(lp3279
I9
aV8487
p3280
ag3278
aVcfeb43ef1a
p3281
asV19597106969
p3282
(lp3283
I1
aV298
p3284
ag3282
aVb9f9b94755
p3285
asV19114801048
p3286
(lp3287
I1
aV380
p3288
ag3286
aV158395231d
p3289
asV8117333298
p3290
(lp3291
I9
aV8049
p3292
ag3290
aV22689f49df
p3293
asV34129776425
p3294
(lp3295
I4
aV3848
p3296
ag3294
aV07fff2b8c2
p3297
asV16727766172
p3298
(lp3299
I9
aV8572
p3300
ag3298
aV2abfe38b9d
p3301
asV15614126622
p3302
(lp3303
I4
aV3940
p3304
ag3302
aVc8c24ef853
p3305
asV19218321266
p3306
(lp3307
I1
aV263
p3308
ag3306
aV176dbdc22e
p3309
asV9820688544
p3310
(lp3311
I6
aV5496
p3312
ag3310
aV683da47247
p3313
asV18838082646
p3314
(lp3315
I4
aV3954
p3316
ag3314
aVb93347eb32
p3317
asV8104693739
p3318
(lp3319
I9
aV8470
p3320
ag3318
aV1fb1398d12
p3321
asV8660097756
p3322
(lp3323
I9
aV8118
p3324
ag3322
aVcc424cb6f2
p3325
asV14649774175
p3326
(lp3327
I4
aV3841
p3328
ag3326
aV3d84064fef
p3329
asV18630613594
p3330
(lp3331
I1
aV490
p3332
ag3330
aVebd731c897
p3333
asV8234685185
p3334
(lp3335
I9
aV8337
p3336
ag3334
aV5fe0b2edd3
p3337
asV8235746754
p3338
(lp3339
I9
aV8202
p3340
ag3338
aV16f42e0ee2
p3341
asV14423624372
p3342
(lp3343
I4
aV3901
p3344
ag3342
aV15fe21f8f2
p3345
asV32968293310
p3346
(lp3347
I3
aV2887
p3348
ag3346
aV2bedcc67f2
p3349
asV8235775880
p3350
(lp3351
I9
aV8203
p3352
ag3350
aV12402ee2c8
p3353
asV14546369424
p3354
(lp3355
I6
aV5037
p3356
ag3354
aVd9596a8b19
p3357
asV8383618393
p3358
(lp3359
I9
aV8360
p3360
ag3358
aV3e159f0802
p3361
asV14276765869
p3362
(lp3363
I4
aV3921
p3364
ag3362
aV7bd370dac6
p3365
asV18274607603
p3366
(lp3367
I6
aV5461
p3368
ag3366
aVcc64c791a1
p3369
asV9247039875
p3370
(lp3371
I8
aV7436
p3372
ag3370
aV21ffef2217
p3373
asV25192173540
p3374
(lp3375
I2
aV1628
p3376
ag3374
aV91f1c2362a
p3377
asV33447865774
p3378
(lp3379
I3
aV2875
p3380
ag3378
aV1db1981bb9
p3381
asV12919914544
p3382
(lp3383
I3
aV2830
p3384
ag3382
aVbb01b224a1
p3385
asV19776576742
p3386
(lp3387
I4
aV3810
p3388
ag3386
aVe665d5c0ab
p3389
asV19238481432
p3390
(lp3391
I4
aV3815
p3392
ag3390
aVf6bbf52f6f
p3393
asV8234702961
p3394
(lp3395
I9
aV8348
p3396
ag3394
aV7cf4e482c3
p3397
asV8235768174
p3398
(lp3399
I9
aV8488
p3400
ag3398
aVe03b8eddbc
p3401
asV33650580043
p3402
(lp3403
I5
aV4158
p3404
ag3402
aV8a7ea391f3
p3405
asV14491171171
p3406
(lp3407
I4
aV3866
p3408
ag3406
aV6ef9e211fc
p3409
asV23940591603
p3410
(lp3411
I2
aV1448
p3412
ag3410
aVda0ae1c649
p3413
asV14493631742
p3414
(lp3415
I6
aV5493
p3416
ag3414
aV3ae473ee88
p3417
asV18621953594
p3418
(lp3419
I4
aV3894
p3420
ag3418
aV8990736577
p3421
asV33479382883
p3422
(lp3423
I3
aV2879
p3424
ag3422
aVfaeb8e4571
p3425
asV16106510544
p3426
(lp3427
I9
aV8673
p3428
ag3426
aV27f46e6a8e
p3429
asV9483899172
p3430
(lp3431
I8
aV7283
p3432
ag3430
aVd59c4b7de5
p3433
asV17361414071
p3434
(lp3435
I9
aV8750
p3436
ag3434
aV5e30b666cf
p3437
asV19056840488
p3438
(lp3439
I1
aV418
p3440
ag3438
aV91798f8e63
p3441
asV14423787834
p3442
(lp3443
I6
aV5316
p3444
ag3442
aV8d15193789
p3445
asV14403444485
p3446
(lp3447
I3
aV2903
p3448
ag3446
aV8f10cb58ea
p3449
asV18661117403
p3450
(lp3451
I1
aV483
p3452
ag3450
aVdc916d4402
p3453
asV13459605213
p3454
(lp3455
I4
aV3787
p3456
ag3454
aV76167646e1
p3457
asV33905733350
p3458
(lp3459
I3
aV2810
p3460
ag3458
aV77f0d46b0b
p3461
asV19595833440
p3462
(lp3463
I1
aV398
p3464
ag3462
aV19cd63502a
p3465
asV34440840243
p3466
(lp3467
I5
aV4274
p3468
ag3466
aV48d3acbf27
p3469
asV15720737531
p3470
(lp3471
I4
aV3938
p3472
ag3470
aV8d2b0dcca2
p3473
asV14126893075
p3474
(lp3475
I8
aV7395
p3476
ag3474
aV728a8e537a
p3477
asV8235757802
p3478
(lp3479
I9
aV8345
p3480
ag3478
aVb74a46b754
p3481
asV18621947184
p3482
(lp3483
I1
aV339
p3484
ag3482
aV567c7632b6
p3485
asV20768144980
p3486
(lp3487
I1
aV743
p3488
ag3486
aVa32fb1168c
p3489
asV15401424239
p3490
(lp3491
I4
aV3940
p3492
ag3490
aV7265f17e3f
p3493
asV19252993365
p3494
(lp3495
I1
aV353
p3496
ag3494
aV52083be9b9
p3497
asV20610385089
p3498
(lp3499
I1
aV763
p3500
ag3498
aV9d6ec0895a
p3501
asV8235774352
p3502
(lp3503
I9
aV8207
p3504
ag3502
aV889a872e60
p3505
asV26957489490
p3506
(lp3507
I8
aV7202
p3508
ag3506
aVb2d8fba63f
p3509
asV35372081992
p3510
(lp3511
I5
aV4211
p3512
ag3510
aV5387ab8ba1
p3513
asV19056841028
p3514
(lp3515
I1
aV324
p3516
ag3514
aV3733a4ecb9
p3517
asV19196136725
p3518
(lp3519
I4
aV3683
p3520
ag3518
aV76d9ef4671
p3521
asV8422892804
p3522
(lp3523
I9
aV8378
p3524
ag3522
aV4810cf4322
p3525
asV18896853310
p3526
(lp3527
I1
aV431
p3528
ag3526
aV000b8b528f
p3529
asV8316667045
p3530
(lp3531
I9
aV8504
p3532
ag3530
aV1108d2ff64
p3533
asV13024981773
p3534
(lp3535
I8
aV7430
p3536
ag3534
aV198bcc171b
p3537
asV18631558664
p3538
(lp3539
I1
aV449
p3540
ag3538
aV74f6ff3f4d
p3541
asV8121192441
p3542
(lp3543
I9
aV8186
p3544
ag3542
aV268c5a2621
p3545
asV9183005034
p3546
(lp3547
I8
aV7308
p3548
ag3546
aV5548b7e7da
p3549
asV19218330586
p3550
(lp3551
I1
aV287
p3552
ag3550
aV89912e56ec
p3553
asV19218321306
p3554
(lp3555
I1
aV416
p3556
ag3554
aV87ef6d9cf0
p3557
asV18621956414
p3558
(lp3559
I1
aV467
p3560
ag3558
aVe5d1f89355
p3561
asV9154349829
p3562
(lp3563
I8
aV7324
p3564
ag3562
aV89a34ca6de
p3565
asV16727761662
p3566
(lp3567
I9
aV8577
p3568
ag3566
aV6c322f94f6
p3569
asV8656612434
p3570
(lp3571
I9
aV8101
p3572
ag3570
aV64182ccba3
p3573
asV16108885323
p3574
(lp3575
I9
aV8673
p3576
ag3574
aV927953d605
p3577
asV15392320229
p3578
(lp3579
I6
aV5615
p3580
ag3578
aV08dfd93501
p3581
asV8333167880
p3582
(lp3583
I9
aV8491
p3584
ag3582
aVf00bb53283
p3585
asV20063364892
p3586
(lp3587
I1
aV516
p3588
ag3586
aV49cdf0c65c
p3589
asV14238322748
p3590
(lp3591
I4
aV3912
p3592
ag3590
aVca18466c69
p3593
asV19056842128
p3594
(lp3595
I1
aV282
p3596
ag3594
aV55d1b7cd86
p3597
asV13949631327
p3598
(lp3599
I6
aV5517
p3600
ag3598
aV69696c200b
p3601
asV9249844706
p3602
(lp3603
I8
aV7423
p3604
ag3602
aVf9b2d5f379
p3605
asV14462285734
p3606
(lp3607
I3
aV2937
p3608
ag3606
aVc34ac69056
p3609
asV9990581473
p3610
(lp3611
I3
aV2876
p3612
ag3610
aV691fa6079a
p3613
asV14491451881
p3614
(lp3615
I6
aV5233
p3616
ag3614
aV170c012062
p3617
asV9480457363
p3618
(lp3619
I8
aV7458
p3620
ag3618
aV717f9f9971
p3621
asV9247049785
p3622
(lp3623
I6
aV5321
p3624
ag3622
aV928d275f38
p3625
asV33331152343
p3626
(lp3627
I3
aV2880
p3628
ag3626
aVa191a3d2c3
p3629
asV15537480517
p3630
(lp3631
I8
aV7553
p3632
ag3630
aV1d0fc413b6
p3633
asV14424925505
p3634
(lp3635
I6
aV5032
p3636
ag3634
aV4f7ab711ef
p3637
as.